
Disassembly of section .text:

00401000 <__mingw_CRTStartup>:
__mingw_CRTStartup():
C:\MinGW\msys\1.0\src\mingwrt/../mingw/crt1.c:189
  401000:	55                   	push   ebp
  401001:	89 e5                	mov    ebp,esp
  401003:	53                   	push   ebx
  401004:	83 ec 34             	sub    esp,0x34
C:\MinGW\msys\1.0\src\mingwrt/../mingw/crt1.c:193
  401007:	a1 28 30 40 00       	mov    eax,ds:0x403028
  40100c:	85 c0                	test   eax,eax
  40100e:	74 1c                	je     40102c <__mingw_CRTStartup+0x2c>
C:\MinGW\msys\1.0\src\mingwrt/../mingw/crt1.c:194
  401010:	c7 44 24 08 00 00 00 	mov    DWORD PTR [esp+0x8],0x0
  401017:	00 
  401018:	c7 44 24 04 02 00 00 	mov    DWORD PTR [esp+0x4],0x2
  40101f:	00 
  401020:	c7 04 24 00 00 00 00 	mov    DWORD PTR [esp],0x0
  401027:	ff d0                	call   eax
  401029:	83 ec 0c             	sub    esp,0xc
C:\MinGW\msys\1.0\src\mingwrt/../mingw/crt1.c:202
  40102c:	c7 04 24 10 11 40 00 	mov    DWORD PTR [esp],0x401110
  401033:	e8 a4 0a 00 00       	call   401adc <SetUnhandledExceptionFilter@4>
  401038:	50                   	push   eax
C:\MinGW\msys\1.0\src\mingwrt/../mingw/crt1.c:207
  401039:	e8 d6 03 00 00       	call   401414 <__cpu_features_init>
C:\MinGW\msys\1.0\src\mingwrt/../mingw/crt1.c:208
  40103e:	e8 b1 04 00 00       	call   4014f4 <_fpreset>
_mingw32_init_mainargs():
C:\MinGW\msys\1.0\src\mingwrt/../mingw/init.c:53
  401043:	c7 45 f0 00 00 00 00 	mov    DWORD PTR [ebp-0x10],0x0
C:\MinGW\msys\1.0\src\mingwrt/../mingw/init.c:60
  40104a:	8d 45 f0             	lea    eax,[ebp-0x10]
  40104d:	89 44 24 10          	mov    DWORD PTR [esp+0x10],eax
  401051:	a1 00 20 40 00       	mov    eax,ds:0x402000
  401056:	89 44 24 0c          	mov    DWORD PTR [esp+0xc],eax
  40105a:	8d 45 f4             	lea    eax,[ebp-0xc]
  40105d:	89 44 24 08          	mov    DWORD PTR [esp+0x8],eax
  401061:	c7 44 24 04 04 40 40 	mov    DWORD PTR [esp+0x4],0x404004
  401068:	00 
  401069:	c7 04 24 00 40 40 00 	mov    DWORD PTR [esp],0x404000
  401070:	e8 07 0a 00 00       	call   401a7c <__getmainargs>
_mingw32_init_fmode():
C:\MinGW\msys\1.0\src\mingwrt/../mingw/crt1.c:70
  401075:	a1 18 40 40 00       	mov    eax,ds:0x404018
  40107a:	85 c0                	test   eax,eax
  40107c:	75 4a                	jne    4010c8 <__mingw_CRTStartup+0xc8>
C:\MinGW\msys\1.0\src\mingwrt/../mingw/crt1.c:97
  40107e:	e8 01 0a 00 00       	call   401a84 <__p__fmode>
  401083:	8b 15 04 20 40 00    	mov    edx,DWORD PTR ds:0x402004
  401089:	89 10                	mov    DWORD PTR [eax],edx
__mingw_CRTStartup():
C:\MinGW\msys\1.0\src\mingwrt/../mingw/crt1.c:224
  40108b:	e8 9c 05 00 00       	call   40162c <_pei386_runtime_relocator>
C:\MinGW\msys\1.0\src\mingwrt/../mingw/crt1.c:228
  401090:	83 e4 f0             	and    esp,0xfffffff0
C:\MinGW\msys\1.0\src\mingwrt/../mingw/crt1.c:236
  401093:	e8 dc 07 00 00       	call   401874 <__main>
C:\MinGW\msys\1.0\src\mingwrt/../mingw/crt1.c:244
  401098:	e8 ef 09 00 00       	call   401a8c <__p__environ>
  40109d:	8b 00                	mov    eax,DWORD PTR [eax]
  40109f:	89 44 24 08          	mov    DWORD PTR [esp+0x8],eax
  4010a3:	a1 04 40 40 00       	mov    eax,ds:0x404004
  4010a8:	89 44 24 04          	mov    DWORD PTR [esp+0x4],eax
  4010ac:	a1 00 40 40 00       	mov    eax,ds:0x404000
  4010b1:	89 04 24             	mov    DWORD PTR [esp],eax
  4010b4:	e8 57 02 00 00       	call   401310 <main>
  4010b9:	89 c3                	mov    ebx,eax
C:\MinGW\msys\1.0\src\mingwrt/../mingw/crt1.c:250
  4010bb:	e8 d4 09 00 00       	call   401a94 <_cexit>
C:\MinGW\msys\1.0\src\mingwrt/../mingw/crt1.c:252
  4010c0:	89 1c 24             	mov    DWORD PTR [esp],ebx
  4010c3:	e8 1c 0a 00 00       	call   401ae4 <ExitProcess@4>
_mingw32_init_fmode():
C:\MinGW\msys\1.0\src\mingwrt/../mingw/crt1.c:72
  4010c8:	a3 04 20 40 00       	mov    ds:0x402004,eax
C:\MinGW\msys\1.0\src\mingwrt/../mingw/crt1.c:83
  4010cd:	89 44 24 04          	mov    DWORD PTR [esp+0x4],eax
  4010d1:	8b 1d fc 50 40 00    	mov    ebx,DWORD PTR ds:0x4050fc
  4010d7:	8b 43 10             	mov    eax,DWORD PTR [ebx+0x10]
  4010da:	89 04 24             	mov    DWORD PTR [esp],eax
  4010dd:	e8 ba 09 00 00       	call   401a9c <_setmode>
C:\MinGW\msys\1.0\src\mingwrt/../mingw/crt1.c:87
  4010e2:	a1 18 40 40 00       	mov    eax,ds:0x404018
  4010e7:	89 44 24 04          	mov    DWORD PTR [esp+0x4],eax
  4010eb:	8b 43 30             	mov    eax,DWORD PTR [ebx+0x30]
  4010ee:	89 04 24             	mov    DWORD PTR [esp],eax
  4010f1:	e8 a6 09 00 00       	call   401a9c <_setmode>
C:\MinGW\msys\1.0\src\mingwrt/../mingw/crt1.c:91
  4010f6:	a1 18 40 40 00       	mov    eax,ds:0x404018
  4010fb:	89 44 24 04          	mov    DWORD PTR [esp+0x4],eax
  4010ff:	8b 43 50             	mov    eax,DWORD PTR [ebx+0x50]
  401102:	89 04 24             	mov    DWORD PTR [esp],eax
  401105:	e8 92 09 00 00       	call   401a9c <_setmode>
  40110a:	e9 6f ff ff ff       	jmp    40107e <__mingw_CRTStartup+0x7e>
  40110f:	90                   	nop

00401110 <_gnu_exception_handler@4>:
_gnu_exception_handler():
C:\MinGW\msys\1.0\src\mingwrt/../mingw/crt1.c:107
  401110:	55                   	push   ebp
  401111:	89 e5                	mov    ebp,esp
  401113:	53                   	push   ebx
  401114:	83 ec 14             	sub    esp,0x14
C:\MinGW\msys\1.0\src\mingwrt/../mingw/crt1.c:112
  401117:	8b 45 08             	mov    eax,DWORD PTR [ebp+0x8]
  40111a:	8b 00                	mov    eax,DWORD PTR [eax]
  40111c:	8b 00                	mov    eax,DWORD PTR [eax]
  40111e:	3d 91 00 00 c0       	cmp    eax,0xc0000091
  401123:	77 3b                	ja     401160 <_gnu_exception_handler@4+0x50>
  401125:	3d 8d 00 00 c0       	cmp    eax,0xc000008d
  40112a:	72 4c                	jb     401178 <_gnu_exception_handler@4+0x68>
C:\MinGW\msys\1.0\src\mingwrt/../mingw/crt1.c:157
  40112c:	bb 01 00 00 00       	mov    ebx,0x1
C:\MinGW\msys\1.0\src\mingwrt/../mingw/crt1.c:162
  401131:	c7 44 24 04 00 00 00 	mov    DWORD PTR [esp+0x4],0x0
  401138:	00 
  401139:	c7 04 24 08 00 00 00 	mov    DWORD PTR [esp],0x8
  401140:	e8 5f 09 00 00       	call   401aa4 <signal>
C:\MinGW\msys\1.0\src\mingwrt/../mingw/crt1.c:163
  401145:	83 f8 01             	cmp    eax,0x1
  401148:	0f 84 ed 00 00 00    	je     40123b <_gnu_exception_handler@4+0x12b>
C:\MinGW\msys\1.0\src\mingwrt/../mingw/crt1.c:170
  40114e:	85 c0                	test   eax,eax
  401150:	0f 85 9a 00 00 00    	jne    4011f0 <_gnu_exception_handler@4+0xe0>
C:\MinGW\msys\1.0\src\mingwrt/../mingw/crt1.c:109
  401156:	31 c0                	xor    eax,eax
C:\MinGW\msys\1.0\src\mingwrt/../mingw/crt1.c:182
  401158:	83 c4 14             	add    esp,0x14
  40115b:	5b                   	pop    ebx
  40115c:	c9                   	leave  
  40115d:	c2 04 00             	ret    0x4
C:\MinGW\msys\1.0\src\mingwrt/../mingw/crt1.c:112
  401160:	3d 94 00 00 c0       	cmp    eax,0xc0000094
  401165:	74 4d                	je     4011b4 <_gnu_exception_handler@4+0xa4>
  401167:	3d 96 00 00 c0       	cmp    eax,0xc0000096
  40116c:	74 18                	je     401186 <_gnu_exception_handler@4+0x76>
  40116e:	3d 93 00 00 c0       	cmp    eax,0xc0000093
  401173:	75 e1                	jne    401156 <_gnu_exception_handler@4+0x46>
  401175:	eb b5                	jmp    40112c <_gnu_exception_handler@4+0x1c>
  401177:	90                   	nop
  401178:	3d 05 00 00 c0       	cmp    eax,0xc0000005
  40117d:	74 3d                	je     4011bc <_gnu_exception_handler@4+0xac>
  40117f:	3d 1d 00 00 c0       	cmp    eax,0xc000001d
  401184:	75 d0                	jne    401156 <_gnu_exception_handler@4+0x46>
C:\MinGW\msys\1.0\src\mingwrt/../mingw/crt1.c:135
  401186:	c7 44 24 04 00 00 00 	mov    DWORD PTR [esp+0x4],0x0
  40118d:	00 
  40118e:	c7 04 24 04 00 00 00 	mov    DWORD PTR [esp],0x4
  401195:	e8 0a 09 00 00       	call   401aa4 <signal>
C:\MinGW\msys\1.0\src\mingwrt/../mingw/crt1.c:136
  40119a:	83 f8 01             	cmp    eax,0x1
  40119d:	74 64                	je     401203 <_gnu_exception_handler@4+0xf3>
C:\MinGW\msys\1.0\src\mingwrt/../mingw/crt1.c:143
  40119f:	85 c0                	test   eax,eax
  4011a1:	74 b3                	je     401156 <_gnu_exception_handler@4+0x46>
C:\MinGW\msys\1.0\src\mingwrt/../mingw/crt1.c:146
  4011a3:	c7 04 24 04 00 00 00 	mov    DWORD PTR [esp],0x4
  4011aa:	ff d0                	call   eax
C:\MinGW\msys\1.0\src\mingwrt/../mingw/crt1.c:147
  4011ac:	b8 ff ff ff ff       	mov    eax,0xffffffff
  4011b1:	eb a5                	jmp    401158 <_gnu_exception_handler@4+0x48>
  4011b3:	90                   	nop
C:\MinGW\msys\1.0\src\mingwrt/../mingw/crt1.c:110
  4011b4:	31 db                	xor    ebx,ebx
  4011b6:	e9 76 ff ff ff       	jmp    401131 <_gnu_exception_handler@4+0x21>
  4011bb:	90                   	nop
C:\MinGW\msys\1.0\src\mingwrt/../mingw/crt1.c:116
  4011bc:	c7 44 24 04 00 00 00 	mov    DWORD PTR [esp+0x4],0x0
  4011c3:	00 
  4011c4:	c7 04 24 0b 00 00 00 	mov    DWORD PTR [esp],0xb
  4011cb:	e8 d4 08 00 00       	call   401aa4 <signal>
C:\MinGW\msys\1.0\src\mingwrt/../mingw/crt1.c:117
  4011d0:	83 f8 01             	cmp    eax,0x1
  4011d3:	74 4a                	je     40121f <_gnu_exception_handler@4+0x10f>
C:\MinGW\msys\1.0\src\mingwrt/../mingw/crt1.c:124
  4011d5:	85 c0                	test   eax,eax
  4011d7:	0f 84 79 ff ff ff    	je     401156 <_gnu_exception_handler@4+0x46>
C:\MinGW\msys\1.0\src\mingwrt/../mingw/crt1.c:127
  4011dd:	c7 04 24 0b 00 00 00 	mov    DWORD PTR [esp],0xb
  4011e4:	ff d0                	call   eax
C:\MinGW\msys\1.0\src\mingwrt/../mingw/crt1.c:128
  4011e6:	b8 ff ff ff ff       	mov    eax,0xffffffff
  4011eb:	e9 68 ff ff ff       	jmp    401158 <_gnu_exception_handler@4+0x48>
C:\MinGW\msys\1.0\src\mingwrt/../mingw/crt1.c:173
  4011f0:	c7 04 24 08 00 00 00 	mov    DWORD PTR [esp],0x8
  4011f7:	ff d0                	call   eax
C:\MinGW\msys\1.0\src\mingwrt/../mingw/crt1.c:174
  4011f9:	b8 ff ff ff ff       	mov    eax,0xffffffff
  4011fe:	e9 55 ff ff ff       	jmp    401158 <_gnu_exception_handler@4+0x48>
C:\MinGW\msys\1.0\src\mingwrt/../mingw/crt1.c:140
  401203:	c7 44 24 04 01 00 00 	mov    DWORD PTR [esp+0x4],0x1
  40120a:	00 
  40120b:	c7 04 24 04 00 00 00 	mov    DWORD PTR [esp],0x4
  401212:	e8 8d 08 00 00       	call   401aa4 <signal>
C:\MinGW\msys\1.0\src\mingwrt/../mingw/crt1.c:141
  401217:	83 c8 ff             	or     eax,0xffffffff
  40121a:	e9 39 ff ff ff       	jmp    401158 <_gnu_exception_handler@4+0x48>
C:\MinGW\msys\1.0\src\mingwrt/../mingw/crt1.c:121
  40121f:	c7 44 24 04 01 00 00 	mov    DWORD PTR [esp+0x4],0x1
  401226:	00 
  401227:	c7 04 24 0b 00 00 00 	mov    DWORD PTR [esp],0xb
  40122e:	e8 71 08 00 00       	call   401aa4 <signal>
C:\MinGW\msys\1.0\src\mingwrt/../mingw/crt1.c:122
  401233:	83 c8 ff             	or     eax,0xffffffff
  401236:	e9 1d ff ff ff       	jmp    401158 <_gnu_exception_handler@4+0x48>
C:\MinGW\msys\1.0\src\mingwrt/../mingw/crt1.c:165
  40123b:	c7 44 24 04 01 00 00 	mov    DWORD PTR [esp+0x4],0x1
  401242:	00 
  401243:	c7 04 24 08 00 00 00 	mov    DWORD PTR [esp],0x8
  40124a:	e8 55 08 00 00       	call   401aa4 <signal>
C:\MinGW\msys\1.0\src\mingwrt/../mingw/crt1.c:166
  40124f:	85 db                	test   ebx,ebx
  401251:	75 0a                	jne    40125d <_gnu_exception_handler@4+0x14d>
C:\MinGW\msys\1.0\src\mingwrt/../mingw/crt1.c:168
  401253:	b8 ff ff ff ff       	mov    eax,0xffffffff
  401258:	e9 fb fe ff ff       	jmp    401158 <_gnu_exception_handler@4+0x48>
C:\MinGW\msys\1.0\src\mingwrt/../mingw/crt1.c:167
  40125d:	e8 92 02 00 00       	call   4014f4 <_fpreset>
C:\MinGW\msys\1.0\src\mingwrt/../mingw/crt1.c:168
  401262:	83 c8 ff             	or     eax,0xffffffff
  401265:	e9 ee fe ff ff       	jmp    401158 <_gnu_exception_handler@4+0x48>
  40126a:	66 90                	xchg   ax,ax

0040126c <mainCRTStartup>:
mainCRTStartup():
C:\MinGW\msys\1.0\src\mingwrt/../mingw/crt1.c:260
  40126c:	55                   	push   ebp
  40126d:	89 e5                	mov    ebp,esp
  40126f:	83 ec 18             	sub    esp,0x18
C:\MinGW\msys\1.0\src\mingwrt/../mingw/crt1.c:262
  401272:	c7 04 24 01 00 00 00 	mov    DWORD PTR [esp],0x1
  401279:	ff 15 f4 50 40 00    	call   DWORD PTR ds:0x4050f4
C:\MinGW\msys\1.0\src\mingwrt/../mingw/crt1.c:264
  40127f:	e8 7c fd ff ff       	call   401000 <__mingw_CRTStartup>

00401284 <WinMainCRTStartup>:
WinMainCRTStartup():
C:\MinGW\msys\1.0\src\mingwrt/../mingw/crt1.c:274
  401284:	55                   	push   ebp
  401285:	89 e5                	mov    ebp,esp
  401287:	83 ec 18             	sub    esp,0x18
C:\MinGW\msys\1.0\src\mingwrt/../mingw/crt1.c:276
  40128a:	c7 04 24 02 00 00 00 	mov    DWORD PTR [esp],0x2
  401291:	ff 15 f4 50 40 00    	call   DWORD PTR ds:0x4050f4
C:\MinGW\msys\1.0\src\mingwrt/../mingw/crt1.c:278
  401297:	e8 64 fd ff ff       	call   401000 <__mingw_CRTStartup>

0040129c <atexit>:
atexit():
C:\MinGW\msys\1.0\src\mingwrt/../mingw/crt1.c:287
  40129c:	55                   	push   ebp
  40129d:	89 e5                	mov    ebp,esp
  40129f:	83 ec 08             	sub    esp,0x8
C:\MinGW\msys\1.0\src\mingwrt/../mingw/crt1.c:288
  4012a2:	a1 0c 51 40 00       	mov    eax,ds:0x40510c
C:\MinGW\msys\1.0\src\mingwrt/../mingw/crt1.c:289
  4012a7:	c9                   	leave  
C:\MinGW\msys\1.0\src\mingwrt/../mingw/crt1.c:288
  4012a8:	ff e0                	jmp    eax
  4012aa:	66 90                	xchg   ax,ax

004012ac <_onexit>:
_onexit():
C:\MinGW\msys\1.0\src\mingwrt/../mingw/crt1.c:295
  4012ac:	55                   	push   ebp
  4012ad:	89 e5                	mov    ebp,esp
  4012af:	83 ec 08             	sub    esp,0x8
C:\MinGW\msys\1.0\src\mingwrt/../mingw/crt1.c:296
  4012b2:	a1 00 51 40 00       	mov    eax,ds:0x405100
C:\MinGW\msys\1.0\src\mingwrt/../mingw/crt1.c:297
  4012b7:	c9                   	leave  
C:\MinGW\msys\1.0\src\mingwrt/../mingw/crt1.c:296
  4012b8:	ff e0                	jmp    eax
  4012ba:	90                   	nop
  4012bb:	90                   	nop

004012bc <__gcc_register_frame>:
  4012bc:	55                   	push   ebp
  4012bd:	89 e5                	mov    ebp,esp
  4012bf:	83 ec 18             	sub    esp,0x18
  4012c2:	8b 0d 0c 20 40 00    	mov    ecx,DWORD PTR ds:0x40200c
  4012c8:	85 c9                	test   ecx,ecx
  4012ca:	74 31                	je     4012fd <__gcc_register_frame+0x41>
  4012cc:	c7 04 24 00 30 40 00 	mov    DWORD PTR [esp],0x403000
  4012d3:	e8 14 08 00 00       	call   401aec <GetModuleHandleA@4>
  4012d8:	52                   	push   edx
  4012d9:	85 c0                	test   eax,eax
  4012db:	74 23                	je     401300 <__gcc_register_frame+0x44>
  4012dd:	c7 44 24 04 0e 30 40 	mov    DWORD PTR [esp+0x4],0x40300e
  4012e4:	00 
  4012e5:	89 04 24             	mov    DWORD PTR [esp],eax
  4012e8:	e8 07 08 00 00       	call   401af4 <GetProcAddress@8>
  4012ed:	83 ec 08             	sub    esp,0x8
  4012f0:	85 c0                	test   eax,eax
  4012f2:	74 09                	je     4012fd <__gcc_register_frame+0x41>
  4012f4:	c7 04 24 0c 20 40 00 	mov    DWORD PTR [esp],0x40200c
  4012fb:	ff d0                	call   eax
  4012fd:	c9                   	leave  
  4012fe:	c3                   	ret    
  4012ff:	90                   	nop
  401300:	b8 00 00 00 00       	mov    eax,0x0
  401305:	eb e9                	jmp    4012f0 <__gcc_register_frame+0x34>
  401307:	90                   	nop

00401308 <__gcc_deregister_frame>:
  401308:	55                   	push   ebp
  401309:	89 e5                	mov    ebp,esp
  40130b:	c9                   	leave  
  40130c:	c3                   	ret    
  40130d:	90                   	nop
  40130e:	90                   	nop
  40130f:	90                   	nop

00401310 <main>:
main():
C:\Users\Administrator\Desktop/Hello.c:8
*/
#include <stdio.h>
#define SQUARE(a) ((a)*(a))
int main()
{
    int a=5;
  401310:	55                   	push   ebp
  401311:	89 e5                	mov    ebp,esp
  401313:	83 e4 f0             	and    esp,0xfffffff0
  401316:	83 ec 20             	sub    esp,0x20
  401319:	e8 56 05 00 00       	call   401874 <__main>
C:\Users\Administrator\Desktop/Hello.c:9
	int b = SQUARE(a++);
  40131e:	c7 44 24 1c 05 00 00 	mov    DWORD PTR [esp+0x1c],0x5
  401325:	00 
C:\Users\Administrator\Desktop/Hello.c:10
	printf("%d",b);
  401326:	8b 44 24 1c          	mov    eax,DWORD PTR [esp+0x1c]
  40132a:	0f af 44 24 1c       	imul   eax,DWORD PTR [esp+0x1c]
  40132f:	89 44 24 18          	mov    DWORD PTR [esp+0x18],eax
  401333:	ff 44 24 1c          	inc    DWORD PTR [esp+0x1c]
  401337:	ff 44 24 1c          	inc    DWORD PTR [esp+0x1c]
C:\Users\Administrator\Desktop/Hello.c:11
    return 0;
  40133b:	8b 44 24 18          	mov    eax,DWORD PTR [esp+0x18]
  40133f:	89 44 24 04          	mov    DWORD PTR [esp+0x4],eax
  401343:	c7 04 24 24 30 40 00 	mov    DWORD PTR [esp],0x403024
  40134a:	e8 5d 07 00 00       	call   401aac <printf>
C:\Users\Administrator\Desktop/Hello.c:12
  40134f:	b8 00 00 00 00       	mov    eax,0x0
C:\Users\Administrator\Desktop/Hello.c:13
  401354:	c9                   	leave  
  401355:	c3                   	ret    
  401356:	90                   	nop
  401357:	90                   	nop

00401358 <__dyn_tls_dtor@12>:
__dyn_tls_dtor():
C:\MinGW\msys\1.0\src\mingwrt/../mingw/tlssup.c:141
  401358:	55                   	push   ebp
  401359:	89 e5                	mov    ebp,esp
  40135b:	83 ec 18             	sub    esp,0x18
  40135e:	8b 45 0c             	mov    eax,DWORD PTR [ebp+0xc]
C:\MinGW\msys\1.0\src\mingwrt/../mingw/tlssup.c:147
  401361:	83 f8 03             	cmp    eax,0x3
  401364:	74 04                	je     40136a <__dyn_tls_dtor@12+0x12>
  401366:	85 c0                	test   eax,eax
  401368:	75 16                	jne    401380 <__dyn_tls_dtor@12+0x28>
C:\MinGW\msys\1.0\src\mingwrt/../mingw/tlssup.c:170
  40136a:	8b 55 10             	mov    edx,DWORD PTR [ebp+0x10]
  40136d:	89 54 24 08          	mov    DWORD PTR [esp+0x8],edx
  401371:	89 44 24 04          	mov    DWORD PTR [esp+0x4],eax
  401375:	8b 45 08             	mov    eax,DWORD PTR [ebp+0x8]
  401378:	89 04 24             	mov    DWORD PTR [esp],eax
  40137b:	e8 84 06 00 00       	call   401a04 <__mingw_TLScallback>
C:\MinGW\msys\1.0\src\mingwrt/../mingw/tlssup.c:172
  401380:	b8 01 00 00 00       	mov    eax,0x1
  401385:	c9                   	leave  
  401386:	c2 0c 00             	ret    0xc
  401389:	8d 76 00             	lea    esi,[esi+0x0]

0040138c <__dyn_tls_init@12>:
__dyn_tls_init@12():
C:\MinGW\msys\1.0\src\mingwrt/../mingw/tlssup.c:85
  40138c:	55                   	push   ebp
  40138d:	89 e5                	mov    ebp,esp
  40138f:	53                   	push   ebx
  401390:	83 ec 14             	sub    esp,0x14
  401393:	8b 45 0c             	mov    eax,DWORD PTR [ebp+0xc]
C:\MinGW\msys\1.0\src\mingwrt/../mingw/tlssup.c:89
  401396:	83 3d 28 40 40 00 02 	cmp    DWORD PTR ds:0x404028,0x2
  40139d:	74 0a                	je     4013a9 <__dyn_tls_init@12+0x1d>
C:\MinGW\msys\1.0\src\mingwrt/../mingw/tlssup.c:90
  40139f:	c7 05 28 40 40 00 02 	mov    DWORD PTR ds:0x404028,0x2
  4013a6:	00 00 00 
C:\MinGW\msys\1.0\src\mingwrt/../mingw/tlssup.c:92
  4013a9:	83 f8 02             	cmp    eax,0x2
  4013ac:	74 12                	je     4013c0 <__dyn_tls_init@12+0x34>
C:\MinGW\msys\1.0\src\mingwrt/../mingw/tlssup.c:94
  4013ae:	48                   	dec    eax
  4013af:	74 3f                	je     4013f0 <__dyn_tls_init@12+0x64>
C:\MinGW\msys\1.0\src\mingwrt/../mingw/tlssup.c:105
  4013b1:	b8 01 00 00 00       	mov    eax,0x1
  4013b6:	83 c4 14             	add    esp,0x14
  4013b9:	5b                   	pop    ebx
  4013ba:	c9                   	leave  
  4013bb:	c2 0c 00             	ret    0xc
  4013be:	66 90                	xchg   ax,ax
C:\MinGW\msys\1.0\src\mingwrt/../mingw/tlssup.c:99
  4013c0:	bb 14 60 40 00       	mov    ebx,0x406014
  4013c5:	81 fb 14 60 40 00    	cmp    ebx,0x406014
  4013cb:	74 e4                	je     4013b1 <__dyn_tls_init@12+0x25>
  4013cd:	8d 76 00             	lea    esi,[esi+0x0]
C:\MinGW\msys\1.0\src\mingwrt/../mingw/tlssup.c:101
  4013d0:	8b 03                	mov    eax,DWORD PTR [ebx]
  4013d2:	85 c0                	test   eax,eax
  4013d4:	74 02                	je     4013d8 <__dyn_tls_init@12+0x4c>
C:\MinGW\msys\1.0\src\mingwrt/../mingw/tlssup.c:102
  4013d6:	ff d0                	call   eax
C:\MinGW\msys\1.0\src\mingwrt/../mingw/tlssup.c:99
  4013d8:	83 c3 04             	add    ebx,0x4
  4013db:	81 fb 14 60 40 00    	cmp    ebx,0x406014
  4013e1:	75 ed                	jne    4013d0 <__dyn_tls_init@12+0x44>
C:\MinGW\msys\1.0\src\mingwrt/../mingw/tlssup.c:105
  4013e3:	b8 01 00 00 00       	mov    eax,0x1
  4013e8:	83 c4 14             	add    esp,0x14
  4013eb:	5b                   	pop    ebx
  4013ec:	c9                   	leave  
  4013ed:	c2 0c 00             	ret    0xc
C:\MinGW\msys\1.0\src\mingwrt/../mingw/tlssup.c:95
  4013f0:	8b 45 10             	mov    eax,DWORD PTR [ebp+0x10]
  4013f3:	89 44 24 08          	mov    DWORD PTR [esp+0x8],eax
  4013f7:	c7 44 24 04 01 00 00 	mov    DWORD PTR [esp+0x4],0x1
  4013fe:	00 
  4013ff:	8b 45 08             	mov    eax,DWORD PTR [ebp+0x8]
  401402:	89 04 24             	mov    DWORD PTR [esp],eax
  401405:	e8 fa 05 00 00       	call   401a04 <__mingw_TLScallback>
  40140a:	eb a5                	jmp    4013b1 <__dyn_tls_init@12+0x25>

0040140c <__tlregdtor>:
__tlregdtor():
C:\MinGW\msys\1.0\src\mingwrt/../mingw/tlssup.c:114
  40140c:	55                   	push   ebp
  40140d:	89 e5                	mov    ebp,esp
C:\MinGW\msys\1.0\src\mingwrt/../mingw/tlssup.c:137
  40140f:	31 c0                	xor    eax,eax
  401411:	c9                   	leave  
  401412:	c3                   	ret    
  401413:	90                   	nop

00401414 <__cpu_features_init>:
__cpu_features_init():
C:\MinGW\msys\1.0\src\mingwrt/../mingw/cpu_features.c:31
  401414:	55                   	push   ebp
  401415:	89 e5                	mov    ebp,esp
  401417:	53                   	push   ebx
C:\MinGW\msys\1.0\src\mingwrt/../mingw/cpu_features.c:35
  401418:	9c                   	pushf  
  401419:	9c                   	pushf  
  40141a:	58                   	pop    eax
  40141b:	89 c2                	mov    edx,eax
  40141d:	35 00 00 20 00       	xor    eax,0x200000
  401422:	50                   	push   eax
  401423:	9d                   	popf   
  401424:	9c                   	pushf  
  401425:	58                   	pop    eax
  401426:	9d                   	popf   
C:\MinGW\msys\1.0\src\mingwrt/../mingw/cpu_features.c:41
  401427:	31 d0                	xor    eax,edx
  401429:	a9 00 00 20 00       	test   eax,0x200000
  40142e:	0f 84 a4 00 00 00    	je     4014d8 <__cpu_features_init+0xc4>
C:\MinGW\msys\1.0\src\mingwrt/../mingw/cpu_features.c:44
  401434:	31 c0                	xor    eax,eax
  401436:	0f a2                	cpuid  
C:\MinGW\msys\1.0\src\mingwrt/../mingw/cpu_features.c:45
  401438:	85 c0                	test   eax,eax
  40143a:	0f 84 98 00 00 00    	je     4014d8 <__cpu_features_init+0xc4>
C:\MinGW\msys\1.0\src\mingwrt/../mingw/cpu_features.c:48
  401440:	b8 01 00 00 00       	mov    eax,0x1
  401445:	0f a2                	cpuid  
C:\MinGW\msys\1.0\src\mingwrt/../mingw/cpu_features.c:50
  401447:	f6 c6 01             	test   dh,0x1
  40144a:	74 07                	je     401453 <__cpu_features_init+0x3f>
C:\MinGW\msys\1.0\src\mingwrt/../mingw/cpu_features.c:51
  40144c:	83 0d 1c 40 40 00 01 	or     DWORD PTR ds:0x40401c,0x1
C:\MinGW\msys\1.0\src\mingwrt/../mingw/cpu_features.c:52
  401453:	f6 c6 80             	test   dh,0x80
  401456:	74 07                	je     40145f <__cpu_features_init+0x4b>
C:\MinGW\msys\1.0\src\mingwrt/../mingw/cpu_features.c:53
  401458:	83 0d 1c 40 40 00 02 	or     DWORD PTR ds:0x40401c,0x2
C:\MinGW\msys\1.0\src\mingwrt/../mingw/cpu_features.c:55
  40145f:	f7 c2 00 00 80 00    	test   edx,0x800000
  401465:	74 07                	je     40146e <__cpu_features_init+0x5a>
C:\MinGW\msys\1.0\src\mingwrt/../mingw/cpu_features.c:56
  401467:	83 0d 1c 40 40 00 04 	or     DWORD PTR ds:0x40401c,0x4
C:\MinGW\msys\1.0\src\mingwrt/../mingw/cpu_features.c:57
  40146e:	f7 c2 00 00 00 01    	test   edx,0x1000000
  401474:	74 07                	je     40147d <__cpu_features_init+0x69>
C:\MinGW\msys\1.0\src\mingwrt/../mingw/cpu_features.c:58
  401476:	83 0d 1c 40 40 00 08 	or     DWORD PTR ds:0x40401c,0x8
C:\MinGW\msys\1.0\src\mingwrt/../mingw/cpu_features.c:59
  40147d:	f7 c2 00 00 00 02    	test   edx,0x2000000
  401483:	74 07                	je     40148c <__cpu_features_init+0x78>
C:\MinGW\msys\1.0\src\mingwrt/../mingw/cpu_features.c:60
  401485:	83 0d 1c 40 40 00 10 	or     DWORD PTR ds:0x40401c,0x10
C:\MinGW\msys\1.0\src\mingwrt/../mingw/cpu_features.c:61
  40148c:	81 e2 00 00 00 04    	and    edx,0x4000000
  401492:	74 07                	je     40149b <__cpu_features_init+0x87>
C:\MinGW\msys\1.0\src\mingwrt/../mingw/cpu_features.c:62
  401494:	83 0d 1c 40 40 00 20 	or     DWORD PTR ds:0x40401c,0x20
C:\MinGW\msys\1.0\src\mingwrt/../mingw/cpu_features.c:65
  40149b:	f6 c1 01             	test   cl,0x1
  40149e:	74 07                	je     4014a7 <__cpu_features_init+0x93>
C:\MinGW\msys\1.0\src\mingwrt/../mingw/cpu_features.c:66
  4014a0:	83 0d 1c 40 40 00 40 	or     DWORD PTR ds:0x40401c,0x40
C:\MinGW\msys\1.0\src\mingwrt/../mingw/cpu_features.c:67
  4014a7:	80 e5 20             	and    ch,0x20
  4014aa:	75 30                	jne    4014dc <__cpu_features_init+0xc8>
C:\MinGW\msys\1.0\src\mingwrt/../mingw/cpu_features.c:70
  4014ac:	b8 00 00 00 80       	mov    eax,0x80000000
  4014b1:	0f a2                	cpuid  
C:\MinGW\msys\1.0\src\mingwrt/../mingw/cpu_features.c:71
  4014b3:	3d 00 00 00 80       	cmp    eax,0x80000000
  4014b8:	76 1e                	jbe    4014d8 <__cpu_features_init+0xc4>
C:\MinGW\msys\1.0\src\mingwrt/../mingw/cpu_features.c:73
  4014ba:	b8 01 00 00 80       	mov    eax,0x80000001
  4014bf:	0f a2                	cpuid  
C:\MinGW\msys\1.0\src\mingwrt/../mingw/cpu_features.c:74
  4014c1:	85 d2                	test   edx,edx
  4014c3:	78 23                	js     4014e8 <__cpu_features_init+0xd4>
C:\MinGW\msys\1.0\src\mingwrt/../mingw/cpu_features.c:76
  4014c5:	81 e2 00 00 00 40    	and    edx,0x40000000
  4014cb:	74 0b                	je     4014d8 <__cpu_features_init+0xc4>
C:\MinGW\msys\1.0\src\mingwrt/../mingw/cpu_features.c:77
  4014cd:	81 0d 1c 40 40 00 00 	or     DWORD PTR ds:0x40401c,0x200
  4014d4:	02 00 00 
  4014d7:	90                   	nop
C:\MinGW\msys\1.0\src\mingwrt/../mingw/cpu_features.c:80
  4014d8:	5b                   	pop    ebx
  4014d9:	c9                   	leave  
  4014da:	c3                   	ret    
  4014db:	90                   	nop
C:\MinGW\msys\1.0\src\mingwrt/../mingw/cpu_features.c:68
  4014dc:	81 0d 1c 40 40 00 80 	or     DWORD PTR ds:0x40401c,0x80
  4014e3:	00 00 00 
  4014e6:	eb c4                	jmp    4014ac <__cpu_features_init+0x98>
C:\MinGW\msys\1.0\src\mingwrt/../mingw/cpu_features.c:75
  4014e8:	81 0d 1c 40 40 00 00 	or     DWORD PTR ds:0x40401c,0x100
  4014ef:	01 00 00 
  4014f2:	eb d1                	jmp    4014c5 <__cpu_features_init+0xb1>

004014f4 <_fpreset>:
_fpreset():
C:\MinGW\msys\1.0\src\mingwrt/../mingw/CRT_fp10.c:14
  4014f4:	55                   	push   ebp
  4014f5:	89 e5                	mov    ebp,esp
  4014f7:	db e3                	fninit 
  4014f9:	c9                   	leave  
  4014fa:	c3                   	ret    
  4014fb:	90                   	nop

004014fc <__report_error>:
__report_error():
C:\MinGW\msys\1.0\src\mingwrt/../mingw/pseudo-reloc.c:83
  4014fc:	55                   	push   ebp
  4014fd:	89 e5                	mov    ebp,esp
  4014ff:	56                   	push   esi
  401500:	53                   	push   ebx
  401501:	83 ec 10             	sub    esp,0x10
C:\MinGW\msys\1.0\src\mingwrt/../mingw/pseudo-reloc.c:146
  401504:	8d 75 0c             	lea    esi,[ebp+0xc]
C:\MinGW\msys\1.0\src\mingwrt/../mingw/pseudo-reloc.c:150
  401507:	8b 1d fc 50 40 00    	mov    ebx,DWORD PTR ds:0x4050fc
  40150d:	83 c3 40             	add    ebx,0x40
  401510:	89 5c 24 0c          	mov    DWORD PTR [esp+0xc],ebx
  401514:	c7 44 24 08 17 00 00 	mov    DWORD PTR [esp+0x8],0x17
  40151b:	00 
  40151c:	c7 44 24 04 01 00 00 	mov    DWORD PTR [esp+0x4],0x1
  401523:	00 
  401524:	c7 04 24 2c 30 40 00 	mov    DWORD PTR [esp],0x40302c
  40152b:	e8 84 05 00 00       	call   401ab4 <fwrite>
C:\MinGW\msys\1.0\src\mingwrt/../mingw/pseudo-reloc.c:152
  401530:	89 74 24 08          	mov    DWORD PTR [esp+0x8],esi
  401534:	8b 45 08             	mov    eax,DWORD PTR [ebp+0x8]
  401537:	89 44 24 04          	mov    DWORD PTR [esp+0x4],eax
  40153b:	89 1c 24             	mov    DWORD PTR [esp],ebx
  40153e:	e8 79 05 00 00       	call   401abc <vfprintf>
C:\MinGW\msys\1.0\src\mingwrt/../mingw/pseudo-reloc.c:154
  401543:	e8 7c 05 00 00       	call   401ac4 <abort>

00401548 <__write_memory>:
__write_memory():
C:\MinGW\msys\1.0\src\mingwrt/../mingw/pseudo-reloc.c:173
  401548:	55                   	push   ebp
  401549:	89 e5                	mov    ebp,esp
  40154b:	57                   	push   edi
  40154c:	56                   	push   esi
  40154d:	53                   	push   ebx
  40154e:	83 ec 4c             	sub    esp,0x4c
  401551:	89 c3                	mov    ebx,eax
  401553:	89 d6                	mov    esi,edx
C:\MinGW\msys\1.0\src\mingwrt/../mingw/pseudo-reloc.c:177
  401555:	85 c9                	test   ecx,ecx
  401557:	75 0b                	jne    401564 <__write_memory+0x1c>
C:\MinGW\msys\1.0\src\mingwrt/../mingw/pseudo-reloc.c:195
  401559:	8d 65 f4             	lea    esp,[ebp-0xc]
  40155c:	5b                   	pop    ebx
  40155d:	5e                   	pop    esi
  40155e:	5f                   	pop    edi
  40155f:	c9                   	leave  
  401560:	c3                   	ret    
  401561:	8d 76 00             	lea    esi,[esi+0x0]
C:\MinGW\msys\1.0\src\mingwrt/../mingw/pseudo-reloc.c:180
  401564:	c7 44 24 08 1c 00 00 	mov    DWORD PTR [esp+0x8],0x1c
  40156b:	00 
  40156c:	8d 45 c8             	lea    eax,[ebp-0x38]
  40156f:	89 44 24 04          	mov    DWORD PTR [esp+0x4],eax
  401573:	89 1c 24             	mov    DWORD PTR [esp],ebx
  401576:	89 4d c4             	mov    DWORD PTR [ebp-0x3c],ecx
  401579:	e8 7e 05 00 00       	call   401afc <VirtualQuery@12>
  40157e:	83 ec 0c             	sub    esp,0xc
  401581:	85 c0                	test   eax,eax
  401583:	8b 4d c4             	mov    ecx,DWORD PTR [ebp-0x3c]
  401586:	0f 84 88 00 00 00    	je     401614 <__write_memory+0xcc>
C:\MinGW\msys\1.0\src\mingwrt/../mingw/pseudo-reloc.c:187
  40158c:	8b 45 dc             	mov    eax,DWORD PTR [ebp-0x24]
  40158f:	83 f8 40             	cmp    eax,0x40
  401592:	74 74                	je     401608 <__write_memory+0xc0>
  401594:	83 f8 04             	cmp    eax,0x4
  401597:	74 6f                	je     401608 <__write_memory+0xc0>
C:\MinGW\msys\1.0\src\mingwrt/../mingw/pseudo-reloc.c:188
  401599:	8d 55 e4             	lea    edx,[ebp-0x1c]
  40159c:	89 54 24 0c          	mov    DWORD PTR [esp+0xc],edx
  4015a0:	c7 44 24 08 40 00 00 	mov    DWORD PTR [esp+0x8],0x40
  4015a7:	00 
  4015a8:	8b 45 d4             	mov    eax,DWORD PTR [ebp-0x2c]
  4015ab:	89 44 24 04          	mov    DWORD PTR [esp+0x4],eax
  4015af:	8b 45 c8             	mov    eax,DWORD PTR [ebp-0x38]
  4015b2:	89 04 24             	mov    DWORD PTR [esp],eax
  4015b5:	89 55 c0             	mov    DWORD PTR [ebp-0x40],edx
  4015b8:	89 4d c4             	mov    DWORD PTR [ebp-0x3c],ecx
  4015bb:	e8 44 05 00 00       	call   401b04 <VirtualProtect@16>
  4015c0:	83 ec 10             	sub    esp,0x10
  4015c3:	8b 45 dc             	mov    eax,DWORD PTR [ebp-0x24]
C:\MinGW\msys\1.0\src\mingwrt/../mingw/pseudo-reloc.c:191
  4015c6:	8b 4d c4             	mov    ecx,DWORD PTR [ebp-0x3c]
  4015c9:	89 df                	mov    edi,ebx
  4015cb:	f3 a4                	rep movs BYTE PTR es:[edi],BYTE PTR ds:[esi]
C:\MinGW\msys\1.0\src\mingwrt/../mingw/pseudo-reloc.c:193
  4015cd:	83 f8 40             	cmp    eax,0x40
  4015d0:	8b 55 c0             	mov    edx,DWORD PTR [ebp-0x40]
  4015d3:	74 84                	je     401559 <__write_memory+0x11>
  4015d5:	83 f8 04             	cmp    eax,0x4
  4015d8:	0f 84 7b ff ff ff    	je     401559 <__write_memory+0x11>
C:\MinGW\msys\1.0\src\mingwrt/../mingw/pseudo-reloc.c:194
  4015de:	89 54 24 0c          	mov    DWORD PTR [esp+0xc],edx
  4015e2:	8b 45 e4             	mov    eax,DWORD PTR [ebp-0x1c]
  4015e5:	89 44 24 08          	mov    DWORD PTR [esp+0x8],eax
  4015e9:	8b 45 d4             	mov    eax,DWORD PTR [ebp-0x2c]
  4015ec:	89 44 24 04          	mov    DWORD PTR [esp+0x4],eax
  4015f0:	8b 45 c8             	mov    eax,DWORD PTR [ebp-0x38]
  4015f3:	89 04 24             	mov    DWORD PTR [esp],eax
  4015f6:	e8 09 05 00 00       	call   401b04 <VirtualProtect@16>
  4015fb:	83 ec 10             	sub    esp,0x10
C:\MinGW\msys\1.0\src\mingwrt/../mingw/pseudo-reloc.c:195
  4015fe:	8d 65 f4             	lea    esp,[ebp-0xc]
  401601:	5b                   	pop    ebx
  401602:	5e                   	pop    esi
  401603:	5f                   	pop    edi
  401604:	c9                   	leave  
  401605:	c3                   	ret    
  401606:	66 90                	xchg   ax,ax
C:\MinGW\msys\1.0\src\mingwrt/../mingw/pseudo-reloc.c:191
  401608:	89 df                	mov    edi,ebx
  40160a:	f3 a4                	rep movs BYTE PTR es:[edi],BYTE PTR ds:[esi]
C:\MinGW\msys\1.0\src\mingwrt/../mingw/pseudo-reloc.c:195
  40160c:	8d 65 f4             	lea    esp,[ebp-0xc]
  40160f:	5b                   	pop    ebx
  401610:	5e                   	pop    esi
  401611:	5f                   	pop    edi
  401612:	c9                   	leave  
  401613:	c3                   	ret    
C:\MinGW\msys\1.0\src\mingwrt/../mingw/pseudo-reloc.c:182
  401614:	89 5c 24 08          	mov    DWORD PTR [esp+0x8],ebx
  401618:	c7 44 24 04 1c 00 00 	mov    DWORD PTR [esp+0x4],0x1c
  40161f:	00 
  401620:	c7 04 24 44 30 40 00 	mov    DWORD PTR [esp],0x403044
  401627:	e8 d0 fe ff ff       	call   4014fc <__report_error>

0040162c <_pei386_runtime_relocator>:
_pei386_runtime_relocator():
C:\MinGW\msys\1.0\src\mingwrt/../mingw/pseudo-reloc.c:359
  40162c:	55                   	push   ebp
  40162d:	89 e5                	mov    ebp,esp
  40162f:	57                   	push   edi
  401630:	56                   	push   esi
  401631:	53                   	push   ebx
  401632:	83 ec 2c             	sub    esp,0x2c
C:\MinGW\msys\1.0\src\mingwrt/../mingw/pseudo-reloc.c:361
  401635:	a1 20 40 40 00       	mov    eax,ds:0x404020
  40163a:	85 c0                	test   eax,eax
  40163c:	74 0a                	je     401648 <_pei386_runtime_relocator+0x1c>
C:\MinGW\msys\1.0\src\mingwrt/../mingw/pseudo-reloc.c:367
  40163e:	83 c4 2c             	add    esp,0x2c
  401641:	5b                   	pop    ebx
  401642:	5e                   	pop    esi
  401643:	5f                   	pop    edi
  401644:	c9                   	leave  
  401645:	c3                   	ret    
  401646:	66 90                	xchg   ax,ax
C:\MinGW\msys\1.0\src\mingwrt/../mingw/pseudo-reloc.c:363
  401648:	c7 05 20 40 40 00 01 	mov    DWORD PTR ds:0x404020,0x1
  40164f:	00 00 00 
do_pseudo_reloc():
C:\MinGW\msys\1.0\src\mingwrt/../mingw/pseudo-reloc.c:204
  401652:	b8 d8 30 40 00       	mov    eax,0x4030d8
  401657:	2d d8 30 40 00       	sub    eax,0x4030d8
C:\MinGW\msys\1.0\src\mingwrt/../mingw/pseudo-reloc.c:212
  40165c:	83 f8 07             	cmp    eax,0x7
  40165f:	7e dd                	jle    40163e <_pei386_runtime_relocator+0x12>
C:\MinGW\msys\1.0\src\mingwrt/../mingw/pseudo-reloc.c:205
  401661:	bb d8 30 40 00       	mov    ebx,0x4030d8
C:\MinGW\msys\1.0\src\mingwrt/../mingw/pseudo-reloc.c:234
  401666:	83 f8 0b             	cmp    eax,0xb
  401669:	7e 61                	jle    4016cc <_pei386_runtime_relocator+0xa0>
C:\MinGW\msys\1.0\src\mingwrt/../mingw/pseudo-reloc.c:235
  40166b:	8b 3d d8 30 40 00    	mov    edi,DWORD PTR ds:0x4030d8
  401671:	85 ff                	test   edi,edi
  401673:	75 0b                	jne    401680 <_pei386_runtime_relocator+0x54>
  401675:	8b 35 dc 30 40 00    	mov    esi,DWORD PTR ds:0x4030dc
  40167b:	85 f6                	test   esi,esi
  40167d:	74 3d                	je     4016bc <_pei386_runtime_relocator+0x90>
  40167f:	90                   	nop
C:\MinGW\msys\1.0\src\mingwrt/../mingw/pseudo-reloc.c:255
  401680:	81 fb d8 30 40 00    	cmp    ebx,0x4030d8
  401686:	73 b6                	jae    40163e <_pei386_runtime_relocator+0x12>
  401688:	be 00 00 40 00       	mov    esi,0x400000
  40168d:	8d 7d e0             	lea    edi,[ebp-0x20]
C:\MinGW\msys\1.0\src\mingwrt/../mingw/pseudo-reloc.c:260
  401690:	8b 43 04             	mov    eax,DWORD PTR [ebx+0x4]
  401693:	01 f0                	add    eax,esi
C:\MinGW\msys\1.0\src\mingwrt/../mingw/pseudo-reloc.c:261
  401695:	8b 10                	mov    edx,DWORD PTR [eax]
  401697:	03 13                	add    edx,DWORD PTR [ebx]
  401699:	89 55 e0             	mov    DWORD PTR [ebp-0x20],edx
C:\MinGW\msys\1.0\src\mingwrt/../mingw/pseudo-reloc.c:262
  40169c:	b9 04 00 00 00       	mov    ecx,0x4
  4016a1:	89 fa                	mov    edx,edi
  4016a3:	e8 a0 fe ff ff       	call   401548 <__write_memory>
C:\MinGW\msys\1.0\src\mingwrt/../mingw/pseudo-reloc.c:257
  4016a8:	83 c3 08             	add    ebx,0x8
C:\MinGW\msys\1.0\src\mingwrt/../mingw/pseudo-reloc.c:255
  4016ab:	81 fb d8 30 40 00    	cmp    ebx,0x4030d8
  4016b1:	72 dd                	jb     401690 <_pei386_runtime_relocator+0x64>
_pei386_runtime_relocator():
C:\MinGW\msys\1.0\src\mingwrt/../mingw/pseudo-reloc.c:367
  4016b3:	83 c4 2c             	add    esp,0x2c
  4016b6:	5b                   	pop    ebx
  4016b7:	5e                   	pop    esi
  4016b8:	5f                   	pop    edi
  4016b9:	c9                   	leave  
  4016ba:	c3                   	ret    
  4016bb:	90                   	nop
do_pseudo_reloc():
C:\MinGW\msys\1.0\src\mingwrt/../mingw/pseudo-reloc.c:236
  4016bc:	8b 0d e0 30 40 00    	mov    ecx,DWORD PTR ds:0x4030e0
  4016c2:	85 c9                	test   ecx,ecx
  4016c4:	75 13                	jne    4016d9 <_pei386_runtime_relocator+0xad>
C:\MinGW\msys\1.0\src\mingwrt/../mingw/pseudo-reloc.c:246
  4016c6:	bb e4 30 40 00       	mov    ebx,0x4030e4
  4016cb:	90                   	nop
C:\MinGW\msys\1.0\src\mingwrt/../mingw/pseudo-reloc.c:249
  4016cc:	8b 13                	mov    edx,DWORD PTR [ebx]
  4016ce:	85 d2                	test   edx,edx
  4016d0:	75 ae                	jne    401680 <_pei386_runtime_relocator+0x54>
  4016d2:	8b 43 04             	mov    eax,DWORD PTR [ebx+0x4]
  4016d5:	85 c0                	test   eax,eax
  4016d7:	75 a7                	jne    401680 <_pei386_runtime_relocator+0x54>
C:\MinGW\msys\1.0\src\mingwrt/../mingw/pseudo-reloc.c:270
  4016d9:	8b 43 08             	mov    eax,DWORD PTR [ebx+0x8]
  4016dc:	83 f8 01             	cmp    eax,0x1
  4016df:	0f 85 02 01 00 00    	jne    4017e7 <_pei386_runtime_relocator+0x1bb>
C:\MinGW\msys\1.0\src\mingwrt/../mingw/pseudo-reloc.c:282
  4016e5:	83 c3 0c             	add    ebx,0xc
C:\MinGW\msys\1.0\src\mingwrt/../mingw/pseudo-reloc.c:284
  4016e8:	81 fb d8 30 40 00    	cmp    ebx,0x4030d8
  4016ee:	0f 83 4a ff ff ff    	jae    40163e <_pei386_runtime_relocator+0x12>
C:\MinGW\msys\1.0\src\mingwrt/../mingw/pseudo-reloc.c:287
  4016f4:	b8 00 00 40 00       	mov    eax,0x400000
  4016f9:	03 43 04             	add    eax,DWORD PTR [ebx+0x4]
C:\MinGW\msys\1.0\src\mingwrt/../mingw/pseudo-reloc.c:292
  4016fc:	8b 0b                	mov    ecx,DWORD PTR [ebx]
C:\MinGW\msys\1.0\src\mingwrt/../mingw/pseudo-reloc.c:293
  4016fe:	8b b1 00 00 40 00    	mov    esi,DWORD PTR [ecx+0x400000]
C:\MinGW\msys\1.0\src\mingwrt/../mingw/pseudo-reloc.c:301
  401704:	8b 53 08             	mov    edx,DWORD PTR [ebx+0x8]
  401707:	81 e2 ff 00 00 00    	and    edx,0xff
  40170d:	83 fa 10             	cmp    edx,0x10
  401710:	74 46                	je     401758 <_pei386_runtime_relocator+0x12c>
  401712:	83 fa 20             	cmp    edx,0x20
  401715:	74 79                	je     401790 <_pei386_runtime_relocator+0x164>
  401717:	83 fa 08             	cmp    edx,0x8
  40171a:	74 18                	je     401734 <_pei386_runtime_relocator+0x108>
C:\MinGW\msys\1.0\src\mingwrt/../mingw/pseudo-reloc.c:326
  40171c:	c7 45 e4 00 00 00 00 	mov    DWORD PTR [ebp-0x1c],0x0
C:\MinGW\msys\1.0\src\mingwrt/../mingw/pseudo-reloc.c:327
  401723:	89 54 24 04          	mov    DWORD PTR [esp+0x4],edx
  401727:	c7 04 24 ac 30 40 00 	mov    DWORD PTR [esp],0x4030ac
  40172e:	e8 c9 fd ff ff       	call   4014fc <__report_error>
  401733:	90                   	nop
C:\MinGW\msys\1.0\src\mingwrt/../mingw/pseudo-reloc.c:304
  401734:	0f b6 38             	movzx  edi,BYTE PTR [eax]
C:\MinGW\msys\1.0\src\mingwrt/../mingw/pseudo-reloc.c:305
  401737:	f7 c7 80 00 00 00    	test   edi,0x80
  40173d:	74 24                	je     401763 <_pei386_runtime_relocator+0x137>
C:\MinGW\msys\1.0\src\mingwrt/../mingw/pseudo-reloc.c:306
  40173f:	81 cf 00 ff ff ff    	or     edi,0xffffff00
C:\MinGW\msys\1.0\src\mingwrt/../mingw/pseudo-reloc.c:333
  401745:	29 cf                	sub    edi,ecx
  401747:	81 ef 00 00 40 00    	sub    edi,0x400000
C:\MinGW\msys\1.0\src\mingwrt/../mingw/pseudo-reloc.c:334
  40174d:	8d 34 37             	lea    esi,[edi+esi*1]
  401750:	89 75 e4             	mov    DWORD PTR [ebp-0x1c],esi
  401753:	eb 2c                	jmp    401781 <_pei386_runtime_relocator+0x155>
  401755:	8d 76 00             	lea    esi,[esi+0x0]
C:\MinGW\msys\1.0\src\mingwrt/../mingw/pseudo-reloc.c:309
  401758:	0f b7 38             	movzx  edi,WORD PTR [eax]
C:\MinGW\msys\1.0\src\mingwrt/../mingw/pseudo-reloc.c:310
  40175b:	f7 c7 00 80 00 00    	test   edi,0x8000
  401761:	75 61                	jne    4017c4 <_pei386_runtime_relocator+0x198>
C:\MinGW\msys\1.0\src\mingwrt/../mingw/pseudo-reloc.c:333
  401763:	29 cf                	sub    edi,ecx
  401765:	89 f9                	mov    ecx,edi
  401767:	81 e9 00 00 40 00    	sub    ecx,0x400000
C:\MinGW\msys\1.0\src\mingwrt/../mingw/pseudo-reloc.c:334
  40176d:	01 f1                	add    ecx,esi
  40176f:	89 4d e4             	mov    DWORD PTR [ebp-0x1c],ecx
C:\MinGW\msys\1.0\src\mingwrt/../mingw/pseudo-reloc.c:337
  401772:	83 fa 10             	cmp    edx,0x10
  401775:	74 61                	je     4017d8 <_pei386_runtime_relocator+0x1ac>
  401777:	83 fa 20             	cmp    edx,0x20
  40177a:	74 23                	je     40179f <_pei386_runtime_relocator+0x173>
  40177c:	83 fa 08             	cmp    edx,0x8
  40177f:	75 2b                	jne    4017ac <_pei386_runtime_relocator+0x180>
C:\MinGW\msys\1.0\src\mingwrt/../mingw/pseudo-reloc.c:340
  401781:	b9 01 00 00 00       	mov    ecx,0x1
  401786:	8d 55 e4             	lea    edx,[ebp-0x1c]
  401789:	e8 ba fd ff ff       	call   401548 <__write_memory>
  40178e:	eb 1c                	jmp    4017ac <_pei386_runtime_relocator+0x180>
C:\MinGW\msys\1.0\src\mingwrt/../mingw/pseudo-reloc.c:333
  401790:	8b 10                	mov    edx,DWORD PTR [eax]
  401792:	29 ca                	sub    edx,ecx
  401794:	81 ea 00 00 40 00    	sub    edx,0x400000
C:\MinGW\msys\1.0\src\mingwrt/../mingw/pseudo-reloc.c:334
  40179a:	01 f2                	add    edx,esi
  40179c:	89 55 e4             	mov    DWORD PTR [ebp-0x1c],edx
C:\MinGW\msys\1.0\src\mingwrt/../mingw/pseudo-reloc.c:346
  40179f:	b9 04 00 00 00       	mov    ecx,0x4
  4017a4:	8d 55 e4             	lea    edx,[ebp-0x1c]
  4017a7:	e8 9c fd ff ff       	call   401548 <__write_memory>
C:\MinGW\msys\1.0\src\mingwrt/../mingw/pseudo-reloc.c:284
  4017ac:	83 c3 0c             	add    ebx,0xc
  4017af:	b8 d8 30 40 00       	mov    eax,0x4030d8
  4017b4:	39 d8                	cmp    eax,ebx
  4017b6:	0f 87 38 ff ff ff    	ja     4016f4 <_pei386_runtime_relocator+0xc8>
  4017bc:	e9 7d fe ff ff       	jmp    40163e <_pei386_runtime_relocator+0x12>
  4017c1:	8d 76 00             	lea    esi,[esi+0x0]
C:\MinGW\msys\1.0\src\mingwrt/../mingw/pseudo-reloc.c:311
  4017c4:	81 cf 00 00 ff ff    	or     edi,0xffff0000
C:\MinGW\msys\1.0\src\mingwrt/../mingw/pseudo-reloc.c:333
  4017ca:	29 cf                	sub    edi,ecx
  4017cc:	81 ef 00 00 40 00    	sub    edi,0x400000
C:\MinGW\msys\1.0\src\mingwrt/../mingw/pseudo-reloc.c:334
  4017d2:	8d 34 37             	lea    esi,[edi+esi*1]
  4017d5:	89 75 e4             	mov    DWORD PTR [ebp-0x1c],esi
C:\MinGW\msys\1.0\src\mingwrt/../mingw/pseudo-reloc.c:343
  4017d8:	b9 02 00 00 00       	mov    ecx,0x2
  4017dd:	8d 55 e4             	lea    edx,[ebp-0x1c]
  4017e0:	e8 63 fd ff ff       	call   401548 <__write_memory>
  4017e5:	eb c5                	jmp    4017ac <_pei386_runtime_relocator+0x180>
C:\MinGW\msys\1.0\src\mingwrt/../mingw/pseudo-reloc.c:272
  4017e7:	89 44 24 04          	mov    DWORD PTR [esp+0x4],eax
  4017eb:	c7 04 24 78 30 40 00 	mov    DWORD PTR [esp],0x403078
  4017f2:	e8 05 fd ff ff       	call   4014fc <__report_error>
  4017f7:	90                   	nop

004017f8 <__do_global_dtors>:
__do_global_dtors():
C:\MinGW\msys\1.0\src\mingwrt/../mingw/gccmain.c:23
  4017f8:	55                   	push   ebp
  4017f9:	89 e5                	mov    ebp,esp
  4017fb:	83 ec 08             	sub    esp,0x8
C:\MinGW\msys\1.0\src\mingwrt/../mingw/gccmain.c:30
  4017fe:	a1 08 20 40 00       	mov    eax,ds:0x402008
  401803:	8b 00                	mov    eax,DWORD PTR [eax]
  401805:	85 c0                	test   eax,eax
  401807:	74 1a                	je     401823 <__do_global_dtors+0x2b>
  401809:	8d 76 00             	lea    esi,[esi+0x0]
C:\MinGW\msys\1.0\src\mingwrt/../mingw/gccmain.c:32
  40180c:	ff d0                	call   eax
C:\MinGW\msys\1.0\src\mingwrt/../mingw/gccmain.c:33
  40180e:	a1 08 20 40 00       	mov    eax,ds:0x402008
  401813:	8d 50 04             	lea    edx,[eax+0x4]
  401816:	89 15 08 20 40 00    	mov    DWORD PTR ds:0x402008,edx
C:\MinGW\msys\1.0\src\mingwrt/../mingw/gccmain.c:30
  40181c:	8b 40 04             	mov    eax,DWORD PTR [eax+0x4]
  40181f:	85 c0                	test   eax,eax
  401821:	75 e9                	jne    40180c <__do_global_dtors+0x14>
C:\MinGW\msys\1.0\src\mingwrt/../mingw/gccmain.c:35
  401823:	c9                   	leave  
  401824:	c3                   	ret    
  401825:	8d 76 00             	lea    esi,[esi+0x0]

00401828 <__do_global_ctors>:
__do_global_ctors():
C:\MinGW\msys\1.0\src\mingwrt/../mingw/gccmain.c:39
  401828:	55                   	push   ebp
  401829:	89 e5                	mov    ebp,esp
  40182b:	53                   	push   ebx
  40182c:	83 ec 14             	sub    esp,0x14
C:\MinGW\msys\1.0\src\mingwrt/../mingw/gccmain.c:40
  40182f:	8b 1d 58 1b 40 00    	mov    ebx,DWORD PTR ds:0x401b58
C:\MinGW\msys\1.0\src\mingwrt/../mingw/gccmain.c:48
  401835:	83 fb ff             	cmp    ebx,0xffffffff
  401838:	74 22                	je     40185c <__do_global_ctors+0x34>
C:\MinGW\msys\1.0\src\mingwrt/../mingw/gccmain.c:57
  40183a:	85 db                	test   ebx,ebx
  40183c:	74 0c                	je     40184a <__do_global_ctors+0x22>
  40183e:	66 90                	xchg   ax,ax
C:\MinGW\msys\1.0\src\mingwrt/../mingw/gccmain.c:59
  401840:	ff 14 9d 58 1b 40 00 	call   DWORD PTR [ebx*4+0x401b58]
C:\MinGW\msys\1.0\src\mingwrt/../mingw/gccmain.c:57
  401847:	4b                   	dec    ebx
  401848:	75 f6                	jne    401840 <__do_global_ctors+0x18>
C:\MinGW\msys\1.0\src\mingwrt/../mingw/gccmain.c:65
  40184a:	c7 04 24 f8 17 40 00 	mov    DWORD PTR [esp],0x4017f8
  401851:	e8 46 fa ff ff       	call   40129c <atexit>
C:\MinGW\msys\1.0\src\mingwrt/../mingw/gccmain.c:66
  401856:	83 c4 14             	add    esp,0x14
  401859:	5b                   	pop    ebx
  40185a:	c9                   	leave  
  40185b:	c3                   	ret    
C:\MinGW\msys\1.0\src\mingwrt/../mingw/gccmain.c:48
  40185c:	31 db                	xor    ebx,ebx
  40185e:	eb 02                	jmp    401862 <__do_global_ctors+0x3a>
C:\MinGW\msys\1.0\src\mingwrt/../mingw/gccmain.c:50
  401860:	89 c3                	mov    ebx,eax
  401862:	8d 43 01             	lea    eax,[ebx+0x1]
  401865:	8b 14 85 58 1b 40 00 	mov    edx,DWORD PTR [eax*4+0x401b58]
  40186c:	85 d2                	test   edx,edx
  40186e:	75 f0                	jne    401860 <__do_global_ctors+0x38>
  401870:	eb c8                	jmp    40183a <__do_global_ctors+0x12>
  401872:	66 90                	xchg   ax,ax

00401874 <__main>:
__main():
C:\MinGW\msys\1.0\src\mingwrt/../mingw/gccmain.c:72
  401874:	55                   	push   ebp
  401875:	89 e5                	mov    ebp,esp
  401877:	83 ec 08             	sub    esp,0x8
C:\MinGW\msys\1.0\src\mingwrt/../mingw/gccmain.c:73
  40187a:	8b 0d 24 40 40 00    	mov    ecx,DWORD PTR ds:0x404024
  401880:	85 c9                	test   ecx,ecx
  401882:	74 04                	je     401888 <__main+0x14>
C:\MinGW\msys\1.0\src\mingwrt/../mingw/gccmain.c:78
  401884:	c9                   	leave  
  401885:	c3                   	ret    
  401886:	66 90                	xchg   ax,ax
C:\MinGW\msys\1.0\src\mingwrt/../mingw/gccmain.c:75
  401888:	c7 05 24 40 40 00 01 	mov    DWORD PTR ds:0x404024,0x1
  40188f:	00 00 00 
C:\MinGW\msys\1.0\src\mingwrt/../mingw/gccmain.c:78
  401892:	c9                   	leave  
C:\MinGW\msys\1.0\src\mingwrt/../mingw/gccmain.c:76
  401893:	eb 93                	jmp    401828 <__do_global_ctors>
  401895:	90                   	nop
  401896:	90                   	nop
  401897:	90                   	nop

00401898 <__mingwthr_run_key_dtors>:
__mingwthr_run_key_dtors():
C:\MinGW\msys\1.0\src\mingwrt/../mingw/tlsthrd.c:99
  401898:	55                   	push   ebp
  401899:	89 e5                	mov    ebp,esp
  40189b:	56                   	push   esi
  40189c:	53                   	push   ebx
  40189d:	83 ec 10             	sub    esp,0x10
C:\MinGW\msys\1.0\src\mingwrt/../mingw/tlsthrd.c:102
  4018a0:	a1 2c 40 40 00       	mov    eax,ds:0x40402c
  4018a5:	85 c0                	test   eax,eax
  4018a7:	75 07                	jne    4018b0 <__mingwthr_run_key_dtors+0x18>
C:\MinGW\msys\1.0\src\mingwrt/../mingw/tlsthrd.c:118
  4018a9:	8d 65 f8             	lea    esp,[ebp-0x8]
  4018ac:	5b                   	pop    ebx
  4018ad:	5e                   	pop    esi
  4018ae:	c9                   	leave  
  4018af:	c3                   	ret    
C:\MinGW\msys\1.0\src\mingwrt/../mingw/tlsthrd.c:104
  4018b0:	c7 04 24 30 40 40 00 	mov    DWORD PTR [esp],0x404030
  4018b7:	e8 50 02 00 00       	call   401b0c <EnterCriticalSection@4>
  4018bc:	51                   	push   ecx
C:\MinGW\msys\1.0\src\mingwrt/../mingw/tlsthrd.c:106
  4018bd:	8b 1d 48 40 40 00    	mov    ebx,DWORD PTR ds:0x404048
  4018c3:	85 db                	test   ebx,ebx
  4018c5:	74 2a                	je     4018f1 <__mingwthr_run_key_dtors+0x59>
  4018c7:	90                   	nop
C:\MinGW\msys\1.0\src\mingwrt/../mingw/tlsthrd.c:108
  4018c8:	8b 03                	mov    eax,DWORD PTR [ebx]
  4018ca:	89 04 24             	mov    DWORD PTR [esp],eax
  4018cd:	e8 42 02 00 00       	call   401b14 <TlsGetValue@4>
  4018d2:	52                   	push   edx
  4018d3:	89 c6                	mov    esi,eax
C:\MinGW\msys\1.0\src\mingwrt/../mingw/tlsthrd.c:109
  4018d5:	e8 42 02 00 00       	call   401b1c <GetLastError@0>
  4018da:	85 c0                	test   eax,eax
  4018dc:	75 0c                	jne    4018ea <__mingwthr_run_key_dtors+0x52>
C:\MinGW\msys\1.0\src\mingwrt/../mingw/tlsthrd.c:111
  4018de:	85 f6                	test   esi,esi
  4018e0:	74 08                	je     4018ea <__mingwthr_run_key_dtors+0x52>
C:\MinGW\msys\1.0\src\mingwrt/../mingw/tlsthrd.c:112
  4018e2:	8b 43 04             	mov    eax,DWORD PTR [ebx+0x4]
  4018e5:	89 34 24             	mov    DWORD PTR [esp],esi
  4018e8:	ff d0                	call   eax
C:\MinGW\msys\1.0\src\mingwrt/../mingw/tlsthrd.c:114
  4018ea:	8b 5b 08             	mov    ebx,DWORD PTR [ebx+0x8]
C:\MinGW\msys\1.0\src\mingwrt/../mingw/tlsthrd.c:106
  4018ed:	85 db                	test   ebx,ebx
  4018ef:	75 d7                	jne    4018c8 <__mingwthr_run_key_dtors+0x30>
C:\MinGW\msys\1.0\src\mingwrt/../mingw/tlsthrd.c:117
  4018f1:	c7 04 24 30 40 40 00 	mov    DWORD PTR [esp],0x404030
  4018f8:	e8 27 02 00 00       	call   401b24 <LeaveCriticalSection@4>
  4018fd:	50                   	push   eax
C:\MinGW\msys\1.0\src\mingwrt/../mingw/tlsthrd.c:118
  4018fe:	8d 65 f8             	lea    esp,[ebp-0x8]
  401901:	5b                   	pop    ebx
  401902:	5e                   	pop    esi
  401903:	c9                   	leave  
  401904:	c3                   	ret    
  401905:	8d 76 00             	lea    esi,[esi+0x0]

00401908 <___w64_mingwthr_add_key_dtor>:
___w64_mingwthr_add_key_dtor():
C:\MinGW\msys\1.0\src\mingwrt/../mingw/tlsthrd.c:42
  401908:	55                   	push   ebp
  401909:	89 e5                	mov    ebp,esp
  40190b:	53                   	push   ebx
  40190c:	83 ec 14             	sub    esp,0x14
C:\MinGW\msys\1.0\src\mingwrt/../mingw/tlsthrd.c:45
  40190f:	a1 2c 40 40 00       	mov    eax,ds:0x40402c
  401914:	85 c0                	test   eax,eax
  401916:	75 08                	jne    401920 <___w64_mingwthr_add_key_dtor+0x18>
C:\MinGW\msys\1.0\src\mingwrt/../mingw/tlsthrd.c:46
  401918:	31 c0                	xor    eax,eax
C:\MinGW\msys\1.0\src\mingwrt/../mingw/tlsthrd.c:61
  40191a:	8b 5d fc             	mov    ebx,DWORD PTR [ebp-0x4]
  40191d:	c9                   	leave  
  40191e:	c3                   	ret    
  40191f:	90                   	nop
C:\MinGW\msys\1.0\src\mingwrt/../mingw/tlsthrd.c:47
  401920:	c7 44 24 04 0c 00 00 	mov    DWORD PTR [esp+0x4],0xc
  401927:	00 
  401928:	c7 04 24 01 00 00 00 	mov    DWORD PTR [esp],0x1
  40192f:	e8 98 01 00 00       	call   401acc <calloc>
  401934:	89 c3                	mov    ebx,eax
C:\MinGW\msys\1.0\src\mingwrt/../mingw/tlsthrd.c:48
  401936:	85 c0                	test   eax,eax
  401938:	74 37                	je     401971 <___w64_mingwthr_add_key_dtor+0x69>
C:\MinGW\msys\1.0\src\mingwrt/../mingw/tlsthrd.c:51
  40193a:	8b 45 08             	mov    eax,DWORD PTR [ebp+0x8]
  40193d:	89 03                	mov    DWORD PTR [ebx],eax
C:\MinGW\msys\1.0\src\mingwrt/../mingw/tlsthrd.c:52
  40193f:	8b 45 0c             	mov    eax,DWORD PTR [ebp+0xc]
  401942:	89 43 04             	mov    DWORD PTR [ebx+0x4],eax
C:\MinGW\msys\1.0\src\mingwrt/../mingw/tlsthrd.c:54
  401945:	c7 04 24 30 40 40 00 	mov    DWORD PTR [esp],0x404030
  40194c:	e8 bb 01 00 00       	call   401b0c <EnterCriticalSection@4>
  401951:	50                   	push   eax
C:\MinGW\msys\1.0\src\mingwrt/../mingw/tlsthrd.c:56
  401952:	a1 48 40 40 00       	mov    eax,ds:0x404048
  401957:	89 43 08             	mov    DWORD PTR [ebx+0x8],eax
C:\MinGW\msys\1.0\src\mingwrt/../mingw/tlsthrd.c:57
  40195a:	89 1d 48 40 40 00    	mov    DWORD PTR ds:0x404048,ebx
C:\MinGW\msys\1.0\src\mingwrt/../mingw/tlsthrd.c:59
  401960:	c7 04 24 30 40 40 00 	mov    DWORD PTR [esp],0x404030
  401967:	e8 b8 01 00 00       	call   401b24 <LeaveCriticalSection@4>
  40196c:	53                   	push   ebx
C:\MinGW\msys\1.0\src\mingwrt/../mingw/tlsthrd.c:60
  40196d:	31 c0                	xor    eax,eax
  40196f:	eb a9                	jmp    40191a <___w64_mingwthr_add_key_dtor+0x12>
C:\MinGW\msys\1.0\src\mingwrt/../mingw/tlsthrd.c:49
  401971:	b8 ff ff ff ff       	mov    eax,0xffffffff
  401976:	eb a2                	jmp    40191a <___w64_mingwthr_add_key_dtor+0x12>

00401978 <___w64_mingwthr_remove_key_dtor>:
___w64_mingwthr_remove_key_dtor():
C:\MinGW\msys\1.0\src\mingwrt/../mingw/tlsthrd.c:65
  401978:	55                   	push   ebp
  401979:	89 e5                	mov    ebp,esp
  40197b:	53                   	push   ebx
  40197c:	83 ec 14             	sub    esp,0x14
  40197f:	8b 5d 08             	mov    ebx,DWORD PTR [ebp+0x8]
C:\MinGW\msys\1.0\src\mingwrt/../mingw/tlsthrd.c:69
  401982:	a1 2c 40 40 00       	mov    eax,ds:0x40402c
  401987:	85 c0                	test   eax,eax
  401989:	75 09                	jne    401994 <___w64_mingwthr_remove_key_dtor+0x1c>
C:\MinGW\msys\1.0\src\mingwrt/../mingw/tlsthrd.c:95
  40198b:	31 c0                	xor    eax,eax
  40198d:	8b 5d fc             	mov    ebx,DWORD PTR [ebp-0x4]
  401990:	c9                   	leave  
  401991:	c3                   	ret    
  401992:	66 90                	xchg   ax,ax
C:\MinGW\msys\1.0\src\mingwrt/../mingw/tlsthrd.c:72
  401994:	c7 04 24 30 40 40 00 	mov    DWORD PTR [esp],0x404030
  40199b:	e8 6c 01 00 00       	call   401b0c <EnterCriticalSection@4>
  4019a0:	51                   	push   ecx
C:\MinGW\msys\1.0\src\mingwrt/../mingw/tlsthrd.c:75
  4019a1:	8b 15 48 40 40 00    	mov    edx,DWORD PTR ds:0x404048
C:\MinGW\msys\1.0\src\mingwrt/../mingw/tlsthrd.c:77
  4019a7:	85 d2                	test   edx,edx
  4019a9:	74 18                	je     4019c3 <___w64_mingwthr_remove_key_dtor+0x4b>
C:\MinGW\msys\1.0\src\mingwrt/../mingw/tlsthrd.c:79
  4019ab:	8b 02                	mov    eax,DWORD PTR [edx]
  4019ad:	39 d8                	cmp    eax,ebx
  4019af:	75 0b                	jne    4019bc <___w64_mingwthr_remove_key_dtor+0x44>
  4019b1:	eb 42                	jmp    4019f5 <___w64_mingwthr_remove_key_dtor+0x7d>
  4019b3:	90                   	nop
  4019b4:	8b 08                	mov    ecx,DWORD PTR [eax]
  4019b6:	39 d9                	cmp    ecx,ebx
  4019b8:	74 1e                	je     4019d8 <___w64_mingwthr_remove_key_dtor+0x60>
  4019ba:	89 c2                	mov    edx,eax
C:\MinGW\msys\1.0\src\mingwrt/../mingw/tlsthrd.c:90
  4019bc:	8b 42 08             	mov    eax,DWORD PTR [edx+0x8]
C:\MinGW\msys\1.0\src\mingwrt/../mingw/tlsthrd.c:77
  4019bf:	85 c0                	test   eax,eax
  4019c1:	75 f1                	jne    4019b4 <___w64_mingwthr_remove_key_dtor+0x3c>
C:\MinGW\msys\1.0\src\mingwrt/../mingw/tlsthrd.c:93
  4019c3:	c7 04 24 30 40 40 00 	mov    DWORD PTR [esp],0x404030
  4019ca:	e8 55 01 00 00       	call   401b24 <LeaveCriticalSection@4>
  4019cf:	52                   	push   edx
C:\MinGW\msys\1.0\src\mingwrt/../mingw/tlsthrd.c:95
  4019d0:	31 c0                	xor    eax,eax
  4019d2:	8b 5d fc             	mov    ebx,DWORD PTR [ebp-0x4]
  4019d5:	c9                   	leave  
  4019d6:	c3                   	ret    
  4019d7:	90                   	nop
C:\MinGW\msys\1.0\src\mingwrt/../mingw/tlsthrd.c:84
  4019d8:	8b 48 08             	mov    ecx,DWORD PTR [eax+0x8]
  4019db:	89 4a 08             	mov    DWORD PTR [edx+0x8],ecx
C:\MinGW\msys\1.0\src\mingwrt/../mingw/tlsthrd.c:86
  4019de:	89 04 24             	mov    DWORD PTR [esp],eax
  4019e1:	e8 ee 00 00 00       	call   401ad4 <free>
C:\MinGW\msys\1.0\src\mingwrt/../mingw/tlsthrd.c:93
  4019e6:	c7 04 24 30 40 40 00 	mov    DWORD PTR [esp],0x404030
  4019ed:	e8 32 01 00 00       	call   401b24 <LeaveCriticalSection@4>
  4019f2:	52                   	push   edx
  4019f3:	eb db                	jmp    4019d0 <___w64_mingwthr_remove_key_dtor+0x58>
C:\MinGW\msys\1.0\src\mingwrt/../mingw/tlsthrd.c:82
  4019f5:	8b 42 08             	mov    eax,DWORD PTR [edx+0x8]
  4019f8:	a3 48 40 40 00       	mov    ds:0x404048,eax
  4019fd:	89 d0                	mov    eax,edx
  4019ff:	eb dd                	jmp    4019de <___w64_mingwthr_remove_key_dtor+0x66>
  401a01:	8d 76 00             	lea    esi,[esi+0x0]

00401a04 <__mingw_TLScallback>:
__mingw_TLScallback():
C:\MinGW\msys\1.0\src\mingwrt/../mingw/tlsthrd.c:124
  401a04:	55                   	push   ebp
  401a05:	89 e5                	mov    ebp,esp
  401a07:	83 ec 18             	sub    esp,0x18
  401a0a:	8b 45 0c             	mov    eax,DWORD PTR [ebp+0xc]
C:\MinGW\msys\1.0\src\mingwrt/../mingw/tlsthrd.c:125
  401a0d:	83 f8 01             	cmp    eax,0x1
  401a10:	74 3e                	je     401a50 <__mingw_TLScallback+0x4c>
  401a12:	72 14                	jb     401a28 <__mingw_TLScallback+0x24>
  401a14:	83 f8 03             	cmp    eax,0x3
  401a17:	75 05                	jne    401a1e <__mingw_TLScallback+0x1a>
C:\MinGW\msys\1.0\src\mingwrt/../mingw/tlsthrd.c:143
  401a19:	e8 7a fe ff ff       	call   401898 <__mingwthr_run_key_dtors>
C:\MinGW\msys\1.0\src\mingwrt/../mingw/tlsthrd.c:147
  401a1e:	b8 01 00 00 00       	mov    eax,0x1
  401a23:	c9                   	leave  
  401a24:	c3                   	ret    
  401a25:	8d 76 00             	lea    esi,[esi+0x0]
C:\MinGW\msys\1.0\src\mingwrt/../mingw/tlsthrd.c:133
  401a28:	e8 6b fe ff ff       	call   401898 <__mingwthr_run_key_dtors>
C:\MinGW\msys\1.0\src\mingwrt/../mingw/tlsthrd.c:134
  401a2d:	a1 2c 40 40 00       	mov    eax,ds:0x40402c
  401a32:	48                   	dec    eax
  401a33:	75 e9                	jne    401a1e <__mingw_TLScallback+0x1a>
C:\MinGW\msys\1.0\src\mingwrt/../mingw/tlsthrd.c:136
  401a35:	c7 05 2c 40 40 00 00 	mov    DWORD PTR ds:0x40402c,0x0
  401a3c:	00 00 00 
C:\MinGW\msys\1.0\src\mingwrt/../mingw/tlsthrd.c:137
  401a3f:	c7 04 24 30 40 40 00 	mov    DWORD PTR [esp],0x404030
  401a46:	e8 e1 00 00 00       	call   401b2c <DeleteCriticalSection@4>
  401a4b:	50                   	push   eax
  401a4c:	eb d0                	jmp    401a1e <__mingw_TLScallback+0x1a>
  401a4e:	66 90                	xchg   ax,ax
C:\MinGW\msys\1.0\src\mingwrt/../mingw/tlsthrd.c:128
  401a50:	a1 2c 40 40 00       	mov    eax,ds:0x40402c
  401a55:	85 c0                	test   eax,eax
  401a57:	74 13                	je     401a6c <__mingw_TLScallback+0x68>
C:\MinGW\msys\1.0\src\mingwrt/../mingw/tlsthrd.c:130
  401a59:	c7 05 2c 40 40 00 01 	mov    DWORD PTR ds:0x40402c,0x1
  401a60:	00 00 00 
C:\MinGW\msys\1.0\src\mingwrt/../mingw/tlsthrd.c:147
  401a63:	b8 01 00 00 00       	mov    eax,0x1
  401a68:	c9                   	leave  
  401a69:	c3                   	ret    
  401a6a:	66 90                	xchg   ax,ax
C:\MinGW\msys\1.0\src\mingwrt/../mingw/tlsthrd.c:129
  401a6c:	c7 04 24 30 40 40 00 	mov    DWORD PTR [esp],0x404030
  401a73:	e8 bc 00 00 00       	call   401b34 <InitializeCriticalSection@4>
  401a78:	52                   	push   edx
  401a79:	eb de                	jmp    401a59 <__mingw_TLScallback+0x55>
  401a7b:	90                   	nop

00401a7c <__getmainargs>:
  401a7c:	ff 25 e8 50 40 00    	jmp    DWORD PTR ds:0x4050e8
  401a82:	90                   	nop
  401a83:	90                   	nop

00401a84 <__p__fmode>:
  401a84:	ff 25 f0 50 40 00    	jmp    DWORD PTR ds:0x4050f0
  401a8a:	90                   	nop
  401a8b:	90                   	nop

00401a8c <__p__environ>:
  401a8c:	ff 25 ec 50 40 00    	jmp    DWORD PTR ds:0x4050ec
  401a92:	90                   	nop
  401a93:	90                   	nop

00401a94 <_cexit>:
  401a94:	ff 25 f8 50 40 00    	jmp    DWORD PTR ds:0x4050f8
  401a9a:	90                   	nop
  401a9b:	90                   	nop

00401a9c <_setmode>:
  401a9c:	ff 25 04 51 40 00    	jmp    DWORD PTR ds:0x405104
  401aa2:	90                   	nop
  401aa3:	90                   	nop

00401aa4 <signal>:
  401aa4:	ff 25 20 51 40 00    	jmp    DWORD PTR ds:0x405120
  401aaa:	90                   	nop
  401aab:	90                   	nop

00401aac <printf>:
  401aac:	ff 25 1c 51 40 00    	jmp    DWORD PTR ds:0x40511c
  401ab2:	90                   	nop
  401ab3:	90                   	nop

00401ab4 <fwrite>:
  401ab4:	ff 25 18 51 40 00    	jmp    DWORD PTR ds:0x405118
  401aba:	90                   	nop
  401abb:	90                   	nop

00401abc <vfprintf>:
  401abc:	ff 25 24 51 40 00    	jmp    DWORD PTR ds:0x405124
  401ac2:	90                   	nop
  401ac3:	90                   	nop

00401ac4 <abort>:
  401ac4:	ff 25 08 51 40 00    	jmp    DWORD PTR ds:0x405108
  401aca:	90                   	nop
  401acb:	90                   	nop

00401acc <calloc>:
  401acc:	ff 25 10 51 40 00    	jmp    DWORD PTR ds:0x405110
  401ad2:	90                   	nop
  401ad3:	90                   	nop

00401ad4 <free>:
  401ad4:	ff 25 14 51 40 00    	jmp    DWORD PTR ds:0x405114
  401ada:	90                   	nop
  401adb:	90                   	nop

00401adc <SetUnhandledExceptionFilter@4>:
  401adc:	ff 25 d4 50 40 00    	jmp    DWORD PTR ds:0x4050d4
  401ae2:	90                   	nop
  401ae3:	90                   	nop

00401ae4 <ExitProcess@4>:
  401ae4:	ff 25 bc 50 40 00    	jmp    DWORD PTR ds:0x4050bc
  401aea:	90                   	nop
  401aeb:	90                   	nop

00401aec <GetModuleHandleA@4>:
  401aec:	ff 25 c4 50 40 00    	jmp    DWORD PTR ds:0x4050c4
  401af2:	90                   	nop
  401af3:	90                   	nop

00401af4 <GetProcAddress@8>:
  401af4:	ff 25 c8 50 40 00    	jmp    DWORD PTR ds:0x4050c8
  401afa:	90                   	nop
  401afb:	90                   	nop

00401afc <VirtualQuery@12>:
  401afc:	ff 25 e0 50 40 00    	jmp    DWORD PTR ds:0x4050e0
  401b02:	90                   	nop
  401b03:	90                   	nop

00401b04 <VirtualProtect@16>:
  401b04:	ff 25 dc 50 40 00    	jmp    DWORD PTR ds:0x4050dc
  401b0a:	90                   	nop
  401b0b:	90                   	nop

00401b0c <EnterCriticalSection@4>:
  401b0c:	ff 25 b8 50 40 00    	jmp    DWORD PTR ds:0x4050b8
  401b12:	90                   	nop
  401b13:	90                   	nop

00401b14 <TlsGetValue@4>:
  401b14:	ff 25 d8 50 40 00    	jmp    DWORD PTR ds:0x4050d8
  401b1a:	90                   	nop
  401b1b:	90                   	nop

00401b1c <GetLastError@0>:
  401b1c:	ff 25 c0 50 40 00    	jmp    DWORD PTR ds:0x4050c0
  401b22:	90                   	nop
  401b23:	90                   	nop

00401b24 <LeaveCriticalSection@4>:
  401b24:	ff 25 d0 50 40 00    	jmp    DWORD PTR ds:0x4050d0
  401b2a:	90                   	nop
  401b2b:	90                   	nop

00401b2c <DeleteCriticalSection@4>:
  401b2c:	ff 25 b4 50 40 00    	jmp    DWORD PTR ds:0x4050b4
  401b32:	90                   	nop
  401b33:	90                   	nop

00401b34 <InitializeCriticalSection@4>:
  401b34:	ff 25 cc 50 40 00    	jmp    DWORD PTR ds:0x4050cc
  401b3a:	90                   	nop
  401b3b:	90                   	nop

00401b3c <register_frame_ctor>:
  401b3c:	55                   	push   ebp
  401b3d:	89 e5                	mov    ebp,esp
  401b3f:	83 ec 18             	sub    esp,0x18
  401b42:	e8 75 f7 ff ff       	call   4012bc <__gcc_register_frame>
  401b47:	c7 04 24 08 13 40 00 	mov    DWORD PTR [esp],0x401308
  401b4e:	e8 49 f7 ff ff       	call   40129c <atexit>
  401b53:	c9                   	leave  
  401b54:	c3                   	ret    
  401b55:	90                   	nop
  401b56:	90                   	nop
  401b57:	90                   	nop

00401b58 <_CTOR_LIST__>:
  401b58:	ff                   	(bad)  
  401b59:	ff                   	(bad)  
  401b5a:	ff                   	(bad)  
  401b5b:	ff                   	(bad)  

00401b5c <.ctors.65535>:
  401b5c:	3c 1b                	cmp    al,0x1b
  401b5e:	40                   	inc    eax
  401b5f:	00 00                	add    BYTE PTR [eax],al
  401b61:	00 00                	add    BYTE PTR [eax],al
  401b63:	00 ff                	add    bh,bh

00401b64 <_DTOR_LIST__>:
  401b64:	ff                   	(bad)  
  401b65:	ff                   	(bad)  
  401b66:	ff                   	(bad)  
  401b67:	ff 00                	inc    DWORD PTR [eax]
  401b69:	00 00                	add    BYTE PTR [eax],al
  401b6b:	00                   	.byte 0x0

Disassembly of section .rdata:

00403000 <.rdata>:
  403000:	6c                   	ins    BYTE PTR es:[edi],dx
  403001:	69 62 67 63 6a 2d 31 	imul   esp,DWORD PTR [edx+0x67],0x312d6a63
  403008:	31 2e                	xor    DWORD PTR [esi],ebp
  40300a:	64                   	fs
  40300b:	6c                   	ins    BYTE PTR es:[edi],dx
  40300c:	6c                   	ins    BYTE PTR es:[edi],dx
  40300d:	00 5f 4a             	add    BYTE PTR [edi+0x4a],bl
  403010:	76 5f                	jbe    403071 <.rdata+0x45>
  403012:	52                   	push   edx
  403013:	65 67 69 73 74 65 72 	imul   esi,DWORD PTR gs:[bp+di+0x74],0x6c437265
  40301a:	43 6c 
  40301c:	61                   	popa   
  40301d:	73 73                	jae    403092 <.rdata+0x66>
  40301f:	65                   	gs
  403020:	73 00                	jae    403022 <.rdata+0x22>
  403022:	00 00                	add    BYTE PTR [eax],al

00403024 <.rdata>:
  403024:	25 64 00 00 8c       	and    eax,0x8c000064

00403028 <__dyn_tls_init_callback>:
  403028:	8c 13                	mov    WORD PTR [ebx],ss
  40302a:	40                   	inc    eax
  40302b:	00 4d 69             	add    BYTE PTR [ebp+0x69],cl

0040302c <.rdata>:
  40302c:	4d                   	dec    ebp
  40302d:	69 6e 67 77 20 72 75 	imul   ebp,DWORD PTR [esi+0x67],0x75722077
  403034:	6e                   	outs   dx,BYTE PTR ds:[esi]
  403035:	74 69                	je     4030a0 <.rdata+0x74>
  403037:	6d                   	ins    DWORD PTR es:[edi],dx
  403038:	65 20 66 61          	and    BYTE PTR gs:[esi+0x61],ah
  40303c:	69 6c 75 72 65 3a 0a 	imul   ebp,DWORD PTR [ebp+esi*2+0x72],0xa3a65
  403043:	00 
  403044:	20 20                	and    BYTE PTR [eax],ah
  403046:	56                   	push   esi
  403047:	69 72 74 75 61 6c 51 	imul   esi,DWORD PTR [edx+0x74],0x516c6175
  40304e:	75 65                	jne    4030b5 <.rdata+0x89>
  403050:	72 79                	jb     4030cb <.rdata+0x9f>
  403052:	20 66 61             	and    BYTE PTR [esi+0x61],ah
  403055:	69 6c 65 64 20 66 6f 	imul   ebp,DWORD PTR [ebp+eiz*2+0x64],0x726f6620
  40305c:	72 
  40305d:	20 25 64 20 62 79    	and    BYTE PTR ds:0x79622064,ah
  403063:	74 65                	je     4030ca <.rdata+0x9e>
  403065:	73 20                	jae    403087 <.rdata+0x5b>
  403067:	61                   	popa   
  403068:	74 20                	je     40308a <.rdata+0x5e>
  40306a:	61                   	popa   
  40306b:	64                   	fs
  40306c:	64                   	fs
  40306d:	72 65                	jb     4030d4 <.rdata+0xa8>
  40306f:	73 73                	jae    4030e4 <_rt_psrelocs_end+0xc>
  403071:	20 25 70 00 00 00    	and    BYTE PTR ds:0x70,ah
  403077:	00 20                	add    BYTE PTR [eax],ah
  403079:	20 55 6e             	and    BYTE PTR [ebp+0x6e],dl
  40307c:	6b 6e 6f 77          	imul   ebp,DWORD PTR [esi+0x6f],0x77
  403080:	6e                   	outs   dx,BYTE PTR ds:[esi]
  403081:	20 70 73             	and    BYTE PTR [eax+0x73],dh
  403084:	65                   	gs
  403085:	75 64                	jne    4030eb <_rt_psrelocs_end+0x13>
  403087:	6f                   	outs   dx,DWORD PTR ds:[esi]
  403088:	20 72 65             	and    BYTE PTR [edx+0x65],dh
  40308b:	6c                   	ins    BYTE PTR es:[edi],dx
  40308c:	6f                   	outs   dx,DWORD PTR ds:[esi]
  40308d:	63 61 74             	arpl   WORD PTR [ecx+0x74],sp
  403090:	69 6f 6e 20 70 72 6f 	imul   ebp,DWORD PTR [edi+0x6e],0x6f727020
  403097:	74 6f                	je     403108 <_rt_psrelocs_end+0x30>
  403099:	63 6f 6c             	arpl   WORD PTR [edi+0x6c],bp
  40309c:	20 76 65             	and    BYTE PTR [esi+0x65],dh
  40309f:	72 73                	jb     403114 <_rt_psrelocs_end+0x3c>
  4030a1:	69 6f 6e 20 25 64 2e 	imul   ebp,DWORD PTR [edi+0x6e],0x2e642520
  4030a8:	0a 00                	or     al,BYTE PTR [eax]
  4030aa:	00 00                	add    BYTE PTR [eax],al
  4030ac:	20 20                	and    BYTE PTR [eax],ah
  4030ae:	55                   	push   ebp
  4030af:	6e                   	outs   dx,BYTE PTR ds:[esi]
  4030b0:	6b 6e 6f 77          	imul   ebp,DWORD PTR [esi+0x6f],0x77
  4030b4:	6e                   	outs   dx,BYTE PTR ds:[esi]
  4030b5:	20 70 73             	and    BYTE PTR [eax+0x73],dh
  4030b8:	65                   	gs
  4030b9:	75 64                	jne    40311f <_rt_psrelocs_end+0x47>
  4030bb:	6f                   	outs   dx,DWORD PTR ds:[esi]
  4030bc:	20 72 65             	and    BYTE PTR [edx+0x65],dh
  4030bf:	6c                   	ins    BYTE PTR es:[edi],dx
  4030c0:	6f                   	outs   dx,DWORD PTR ds:[esi]
  4030c1:	63 61 74             	arpl   WORD PTR [ecx+0x74],sp
  4030c4:	69 6f 6e 20 62 69 74 	imul   ebp,DWORD PTR [edi+0x6e],0x74696220
  4030cb:	20 73 69             	and    BYTE PTR [ebx+0x69],dh
  4030ce:	7a 65                	jp     403135 <_rt_psrelocs_end+0x5d>
  4030d0:	20 25 64 2e 0a 00    	and    BYTE PTR ds:0xa2e64,ah
  4030d6:	00 00                	add    BYTE PTR [eax],al

Disassembly of section .idata:

00405000 <_head_libkernel32_a>:
  405000:	3c 50                	cmp    al,0x50
  405002:	00 00                	add    BYTE PTR [eax],al
  405004:	00 00                	add    BYTE PTR [eax],al
  405006:	00 00                	add    BYTE PTR [eax],al
  405008:	00 00                	add    BYTE PTR [eax],al
  40500a:	00 00                	add    BYTE PTR [eax],al
  40500c:	08 53 00             	or     BYTE PTR [ebx+0x0],dl
  40500f:	00 b4 50 00 00 70 50 	add    BYTE PTR [eax+edx*2+0x50700000],dh

00405014 <_head_libmsvcrt_a>:
  405014:	70 50                	jo     405066 <.idata$4+0x2>
  405016:	00 00                	add    BYTE PTR [eax],al
  405018:	00 00                	add    BYTE PTR [eax],al
  40501a:	00 00                	add    BYTE PTR [eax],al
  40501c:	00 00                	add    BYTE PTR [eax],al
  40501e:	00 00                	add    BYTE PTR [eax],al
  405020:	58                   	pop    eax
  405021:	53                   	push   ebx
  405022:	00 00                	add    BYTE PTR [eax],al
  405024:	e8 50 00 00 00       	call   405079 <.idata$4+0x1>
  405029:	00 00                	add    BYTE PTR [eax],al
  40502b:	00 00                	add    BYTE PTR [eax],al
  40502d:	00 00                	add    BYTE PTR [eax],al
  40502f:	00 00                	add    BYTE PTR [eax],al
  405031:	00 00                	add    BYTE PTR [eax],al
  405033:	00 00                	add    BYTE PTR [eax],al
  405035:	00 00                	add    BYTE PTR [eax],al
  405037:	00 00                	add    BYTE PTR [eax],al
  405039:	00 00                	add    BYTE PTR [eax],al
  40503b:	00 2c 51             	add    BYTE PTR [ecx+edx*2],ch

0040503c <hname>:
  40503c:	2c 51                	sub    al,0x51
  40503e:	00 00                	add    BYTE PTR [eax],al

00405040 <.idata$4>:
  405040:	44                   	inc    esp
  405041:	51                   	push   ecx
  405042:	00 00                	add    BYTE PTR [eax],al

00405044 <.idata$4>:
  405044:	5c                   	pop    esp
  405045:	51                   	push   ecx
  405046:	00 00                	add    BYTE PTR [eax],al

00405048 <.idata$4>:
  405048:	6a 51                	push   0x51
  40504a:	00 00                	add    BYTE PTR [eax],al

0040504c <.idata$4>:
  40504c:	7a 51                	jp     40509f <.idata$4+0x3>
  40504e:	00 00                	add    BYTE PTR [eax],al

00405050 <.idata$4>:
  405050:	8e 51 00             	mov    ss,WORD PTR [ecx+0x0]
  405053:	00 a0 51 00 00 bc    	add    BYTE PTR [eax-0x43ffffaf],ah

00405054 <.idata$4>:
  405054:	a0 51 00 00 bc       	mov    al,ds:0xbc000051

00405058 <.idata$4>:
  405058:	bc 51 00 00 d4       	mov    esp,0xd4000051

0040505c <.idata$4>:
  40505c:	d4 51                	aam    0x51
  40505e:	00 00                	add    BYTE PTR [eax],al

00405060 <.idata$4>:
  405060:	f2 51                	repnz push ecx
  405062:	00 00                	add    BYTE PTR [eax],al

00405064 <.idata$4>:
  405064:	00 52 00             	add    BYTE PTR [edx+0x0],dl
  405067:	00 12                	add    BYTE PTR [edx],dl

00405068 <.idata$4>:
  405068:	12 52 00             	adc    dl,BYTE PTR [edx+0x0]
  40506b:	00 00                	add    BYTE PTR [eax],al

0040506c <.idata$4>:
  40506c:	00 00                	add    BYTE PTR [eax],al
  40506e:	00 00                	add    BYTE PTR [eax],al

00405070 <hname>:
  405070:	22 52 00             	and    dl,BYTE PTR [edx+0x0]
  405073:	00 32                	add    BYTE PTR [edx],dh

00405074 <.idata$4>:
  405074:	32 52 00             	xor    dl,BYTE PTR [edx+0x0]
  405077:	00 42 52             	add    BYTE PTR [edx+0x52],al

00405078 <.idata$4>:
  405078:	42                   	inc    edx
  405079:	52                   	push   edx
  40507a:	00 00                	add    BYTE PTR [eax],al

0040507c <.idata$4>:
  40507c:	50                   	push   eax
  40507d:	52                   	push   edx
  40507e:	00 00                	add    BYTE PTR [eax],al

00405080 <.idata$4>:
  405080:	62 52 00             	bound  edx,QWORD PTR [edx+0x0]
  405083:	00 6c 52 00          	add    BYTE PTR [edx+edx*2+0x0],ch

00405084 <.idata$4>:
  405084:	6c                   	ins    BYTE PTR es:[edi],dx
  405085:	52                   	push   edx
  405086:	00 00                	add    BYTE PTR [eax],al

00405088 <.idata$4>:
  405088:	74 52                	je     4050dc <_imp__VirtualProtect@16>
  40508a:	00 00                	add    BYTE PTR [eax],al

0040508c <.idata$4>:
  40508c:	7e 52                	jle    4050e0 <_imp__VirtualQuery@12>
  40508e:	00 00                	add    BYTE PTR [eax],al

00405090 <.idata$4>:
  405090:	8a 52 00             	mov    dl,BYTE PTR [edx+0x0]
  405093:	00 92 52 00 00 9c    	add    BYTE PTR [edx-0x63ffffae],dl

00405094 <.idata$4>:
  405094:	92                   	xchg   edx,eax
  405095:	52                   	push   edx
  405096:	00 00                	add    BYTE PTR [eax],al

00405098 <.idata$4>:
  405098:	9c                   	pushf  
  405099:	52                   	push   edx
  40509a:	00 00                	add    BYTE PTR [eax],al

0040509c <.idata$4>:
  40509c:	a6                   	cmps   BYTE PTR ds:[esi],BYTE PTR es:[edi]
  40509d:	52                   	push   edx
  40509e:	00 00                	add    BYTE PTR [eax],al

004050a0 <.idata$4>:
  4050a0:	ae                   	scas   al,BYTE PTR es:[edi]
  4050a1:	52                   	push   edx
  4050a2:	00 00                	add    BYTE PTR [eax],al

004050a4 <.idata$4>:
  4050a4:	b8 52 00 00 c2       	mov    eax,0xc2000052

004050a8 <.idata$4>:
  4050a8:	c2 52 00             	ret    0x52
  4050ab:	00 cc                	add    ah,cl

004050ac <.idata$4>:
  4050ac:	cc                   	int3   
  4050ad:	52                   	push   edx
  4050ae:	00 00                	add    BYTE PTR [eax],al

004050b0 <.idata$4>:
  4050b0:	00 00                	add    BYTE PTR [eax],al
  4050b2:	00 00                	add    BYTE PTR [eax],al

004050b4 <_IAT_start__>:
  4050b4:	2c 51                	sub    al,0x51
  4050b6:	00 00                	add    BYTE PTR [eax],al

004050b8 <_imp__EnterCriticalSection@4>:
  4050b8:	44                   	inc    esp
  4050b9:	51                   	push   ecx
  4050ba:	00 00                	add    BYTE PTR [eax],al

004050bc <_imp__ExitProcess@4>:
  4050bc:	5c                   	pop    esp
  4050bd:	51                   	push   ecx
  4050be:	00 00                	add    BYTE PTR [eax],al

004050c0 <_imp__GetLastError@0>:
  4050c0:	6a 51                	push   0x51
  4050c2:	00 00                	add    BYTE PTR [eax],al

004050c4 <_imp__GetModuleHandleA@4>:
  4050c4:	7a 51                	jp     405117 <_imp__free+0x3>
  4050c6:	00 00                	add    BYTE PTR [eax],al

004050c8 <_imp__GetProcAddress@8>:
  4050c8:	8e 51 00             	mov    ss,WORD PTR [ecx+0x0]
  4050cb:	00 a0 51 00 00 bc    	add    BYTE PTR [eax-0x43ffffaf],ah

004050cc <_imp__InitializeCriticalSection@4>:
  4050cc:	a0 51 00 00 bc       	mov    al,ds:0xbc000051

004050d0 <_imp__LeaveCriticalSection@4>:
  4050d0:	bc 51 00 00 d4       	mov    esp,0xd4000051

004050d4 <_imp__SetUnhandledExceptionFilter@4>:
  4050d4:	d4 51                	aam    0x51
  4050d6:	00 00                	add    BYTE PTR [eax],al

004050d8 <_imp__TlsGetValue@4>:
  4050d8:	f2 51                	repnz push ecx
  4050da:	00 00                	add    BYTE PTR [eax],al

004050dc <_imp__VirtualProtect@16>:
  4050dc:	00 52 00             	add    BYTE PTR [edx+0x0],dl
  4050df:	00 12                	add    BYTE PTR [edx],dl

004050e0 <_imp__VirtualQuery@12>:
  4050e0:	12 52 00             	adc    dl,BYTE PTR [edx+0x0]
  4050e3:	00 00                	add    BYTE PTR [eax],al

004050e4 <.idata$5>:
  4050e4:	00 00                	add    BYTE PTR [eax],al
  4050e6:	00 00                	add    BYTE PTR [eax],al

004050e8 <_imp____getmainargs>:
  4050e8:	22 52 00             	and    dl,BYTE PTR [edx+0x0]
  4050eb:	00 32                	add    BYTE PTR [edx],dh

004050ec <_imp____p__environ>:
  4050ec:	32 52 00             	xor    dl,BYTE PTR [edx+0x0]
  4050ef:	00 42 52             	add    BYTE PTR [edx+0x52],al

004050f0 <_imp____p__fmode>:
  4050f0:	42                   	inc    edx
  4050f1:	52                   	push   edx
  4050f2:	00 00                	add    BYTE PTR [eax],al

004050f4 <_imp____set_app_type>:
  4050f4:	50                   	push   eax
  4050f5:	52                   	push   edx
  4050f6:	00 00                	add    BYTE PTR [eax],al

004050f8 <_imp___cexit>:
  4050f8:	62 52 00             	bound  edx,QWORD PTR [edx+0x0]
  4050fb:	00 6c 52 00          	add    BYTE PTR [edx+edx*2+0x0],ch

004050fc <_imp___iob>:
  4050fc:	6c                   	ins    BYTE PTR es:[edi],dx
  4050fd:	52                   	push   edx
  4050fe:	00 00                	add    BYTE PTR [eax],al

00405100 <_imp___onexit>:
  405100:	74 52                	je     405154 <.idata$6+0x10>
  405102:	00 00                	add    BYTE PTR [eax],al

00405104 <_imp___setmode>:
  405104:	7e 52                	jle    405158 <.idata$6+0x14>
  405106:	00 00                	add    BYTE PTR [eax],al

00405108 <_imp__abort>:
  405108:	8a 52 00             	mov    dl,BYTE PTR [edx+0x0]
  40510b:	00 92 52 00 00 9c    	add    BYTE PTR [edx-0x63ffffae],dl

0040510c <_imp__atexit>:
  40510c:	92                   	xchg   edx,eax
  40510d:	52                   	push   edx
  40510e:	00 00                	add    BYTE PTR [eax],al

00405110 <_imp__calloc>:
  405110:	9c                   	pushf  
  405111:	52                   	push   edx
  405112:	00 00                	add    BYTE PTR [eax],al

00405114 <_imp__free>:
  405114:	a6                   	cmps   BYTE PTR ds:[esi],BYTE PTR es:[edi]
  405115:	52                   	push   edx
  405116:	00 00                	add    BYTE PTR [eax],al

00405118 <_imp__fwrite>:
  405118:	ae                   	scas   al,BYTE PTR es:[edi]
  405119:	52                   	push   edx
  40511a:	00 00                	add    BYTE PTR [eax],al

0040511c <_imp__printf>:
  40511c:	b8 52 00 00 c2       	mov    eax,0xc2000052

00405120 <_imp__signal>:
  405120:	c2 52 00             	ret    0x52
  405123:	00 cc                	add    ah,cl

00405124 <_imp__vfprintf>:
  405124:	cc                   	int3   
  405125:	52                   	push   edx
  405126:	00 00                	add    BYTE PTR [eax],al

00405128 <.idata$5>:
  405128:	00 00                	add    BYTE PTR [eax],al
  40512a:	00 00                	add    BYTE PTR [eax],al

0040512c <_IAT_end__>:
  40512c:	cf                   	iret   
  40512d:	00 44 65 6c          	add    BYTE PTR [ebp+eiz*2+0x6c],al
  405131:	65                   	gs
  405132:	74 65                	je     405199 <.idata$6+0xb>
  405134:	43                   	inc    ebx
  405135:	72 69                	jb     4051a0 <.idata$6>
  405137:	74 69                	je     4051a2 <.idata$6+0x2>
  405139:	63 61 6c             	arpl   WORD PTR [ecx+0x6c],sp
  40513c:	53                   	push   ebx
  40513d:	65 63 74 69 6f       	arpl   WORD PTR gs:[ecx+ebp*2+0x6f],si
  405142:	6e                   	outs   dx,BYTE PTR ds:[esi]
  405143:	00 ec                	add    ah,ch

00405144 <.idata$6>:
  405144:	ec                   	in     al,dx
  405145:	00 45 6e             	add    BYTE PTR [ebp+0x6e],al
  405148:	74 65                	je     4051af <.idata$6+0xf>
  40514a:	72 43                	jb     40518f <.idata$6+0x1>
  40514c:	72 69                	jb     4051b7 <.idata$6+0x17>
  40514e:	74 69                	je     4051b9 <.idata$6+0x19>
  405150:	63 61 6c             	arpl   WORD PTR [ecx+0x6c],sp
  405153:	53                   	push   ebx
  405154:	65 63 74 69 6f       	arpl   WORD PTR gs:[ecx+ebp*2+0x6f],si
  405159:	6e                   	outs   dx,BYTE PTR ds:[esi]
  40515a:	00 00                	add    BYTE PTR [eax],al

0040515c <.idata$6>:
  40515c:	17                   	pop    ss
  40515d:	01 45 78             	add    DWORD PTR [ebp+0x78],eax
  405160:	69 74 50 72 6f 63 65 	imul   esi,DWORD PTR [eax+edx*2+0x72],0x7365636f
  405167:	73 
  405168:	73 00                	jae    40516a <.idata$6>

0040516a <.idata$6>:
  40516a:	fe 01                	inc    BYTE PTR [ecx]
  40516c:	47                   	inc    edi
  40516d:	65                   	gs
  40516e:	74 4c                	je     4051bc <.idata$6>
  405170:	61                   	popa   
  405171:	73 74                	jae    4051e7 <.idata$6+0x13>
  405173:	45                   	inc    ebp
  405174:	72 72                	jb     4051e8 <.idata$6+0x14>
  405176:	6f                   	outs   dx,DWORD PTR ds:[esi]
  405177:	72 00                	jb     405179 <.idata$6+0xf>
  405179:	00 11                	add    BYTE PTR [ecx],dl

0040517a <.idata$6>:
  40517a:	11 02                	adc    DWORD PTR [edx],eax
  40517c:	47                   	inc    edi
  40517d:	65                   	gs
  40517e:	74 4d                	je     4051cd <.idata$6+0x11>
  405180:	6f                   	outs   dx,DWORD PTR ds:[esi]
  405181:	64                   	fs
  405182:	75 6c                	jne    4051f0 <.idata$6+0x1c>
  405184:	65                   	gs
  405185:	48                   	dec    eax
  405186:	61                   	popa   
  405187:	6e                   	outs   dx,BYTE PTR ds:[esi]
  405188:	64                   	fs
  405189:	6c                   	ins    BYTE PTR es:[edi],dx
  40518a:	65                   	gs
  40518b:	41                   	inc    ecx
  40518c:	00 00                	add    BYTE PTR [eax],al

0040518e <.idata$6>:
  40518e:	41                   	inc    ecx
  40518f:	02 47 65             	add    al,BYTE PTR [edi+0x65]
  405192:	74 50                	je     4051e4 <.idata$6+0x10>
  405194:	72 6f                	jb     405205 <.idata$6+0x5>
  405196:	63 41 64             	arpl   WORD PTR [ecx+0x64],ax
  405199:	64                   	fs
  40519a:	72 65                	jb     405201 <.idata$6+0x1>
  40519c:	73 73                	jae    405211 <.idata$6+0x11>
  40519e:	00 00                	add    BYTE PTR [eax],al

004051a0 <.idata$6>:
  4051a0:	de 02                	fiadd  WORD PTR [edx]
  4051a2:	49                   	dec    ecx
  4051a3:	6e                   	outs   dx,BYTE PTR ds:[esi]
  4051a4:	69 74 69 61 6c 69 7a 	imul   esi,DWORD PTR [ecx+ebp*2+0x61],0x657a696c
  4051ab:	65 
  4051ac:	43                   	inc    ebx
  4051ad:	72 69                	jb     405218 <.idata$6+0x6>
  4051af:	74 69                	je     40521a <.idata$6+0x8>
  4051b1:	63 61 6c             	arpl   WORD PTR [ecx+0x6c],sp
  4051b4:	53                   	push   ebx
  4051b5:	65 63 74 69 6f       	arpl   WORD PTR gs:[ecx+ebp*2+0x6f],si
  4051ba:	6e                   	outs   dx,BYTE PTR ds:[esi]
  4051bb:	00 2e                	add    BYTE PTR [esi],ch

004051bc <.idata$6>:
  4051bc:	2e 03 4c 65 61       	add    ecx,DWORD PTR cs:[ebp+eiz*2+0x61]
  4051c1:	76 65                	jbe    405228 <.idata$6+0x6>
  4051c3:	43                   	inc    ebx
  4051c4:	72 69                	jb     40522f <.idata$6+0xd>
  4051c6:	74 69                	je     405231 <.idata$6+0xf>
  4051c8:	63 61 6c             	arpl   WORD PTR [ecx+0x6c],sp
  4051cb:	53                   	push   ebx
  4051cc:	65 63 74 69 6f       	arpl   WORD PTR gs:[ecx+ebp*2+0x6f],si
  4051d1:	6e                   	outs   dx,BYTE PTR ds:[esi]
  4051d2:	00 00                	add    BYTE PTR [eax],al

004051d4 <.idata$6>:
  4051d4:	74 04                	je     4051da <.idata$6+0x6>
  4051d6:	53                   	push   ebx
  4051d7:	65                   	gs
  4051d8:	74 55                	je     40522f <.idata$6+0xd>
  4051da:	6e                   	outs   dx,BYTE PTR ds:[esi]
  4051db:	68 61 6e 64 6c       	push   0x6c646e61
  4051e0:	65                   	gs
  4051e1:	64                   	fs
  4051e2:	45                   	inc    ebp
  4051e3:	78 63                	js     405248 <.idata$6+0x6>
  4051e5:	65                   	gs
  4051e6:	70 74                	jo     40525c <.idata$6+0xc>
  4051e8:	69 6f 6e 46 69 6c 74 	imul   ebp,DWORD PTR [edi+0x6e],0x746c6946
  4051ef:	65                   	gs
  4051f0:	72 00                	jb     4051f2 <.idata$6>

004051f2 <.idata$6>:
  4051f2:	95                   	xchg   ebp,eax
  4051f3:	04 54                	add    al,0x54
  4051f5:	6c                   	ins    BYTE PTR es:[edi],dx
  4051f6:	73 47                	jae    40523f <.idata$6+0xd>
  4051f8:	65                   	gs
  4051f9:	74 56                	je     405251 <.idata$6+0x1>
  4051fb:	61                   	popa   
  4051fc:	6c                   	ins    BYTE PTR es:[edi],dx
  4051fd:	75 65                	jne    405264 <.idata$6+0x2>
  4051ff:	00 bd 04 56 69 72    	add    BYTE PTR [ebp+0x72695604],bh

00405200 <.idata$6>:
  405200:	bd 04 56 69 72       	mov    ebp,0x72695604
  405205:	74 75                	je     40527c <.idata$6+0x8>
  405207:	61                   	popa   
  405208:	6c                   	ins    BYTE PTR es:[edi],dx
  405209:	50                   	push   eax
  40520a:	72 6f                	jb     40527b <.idata$6+0x7>
  40520c:	74 65                	je     405273 <.idata$6+0x7>
  40520e:	63 74 00 00          	arpl   WORD PTR [eax+eax*1+0x0],si

00405212 <.idata$6>:
  405212:	bf 04 56 69 72       	mov    edi,0x72695604
  405217:	74 75                	je     40528e <.idata$6+0x4>
  405219:	61                   	popa   
  40521a:	6c                   	ins    BYTE PTR es:[edi],dx
  40521b:	51                   	push   ecx
  40521c:	75 65                	jne    405283 <.idata$6+0x5>
  40521e:	72 79                	jb     405299 <.idata$6+0x7>
  405220:	00 00                	add    BYTE PTR [eax],al

00405222 <.idata$6>:
  405222:	37                   	aaa    
  405223:	00 5f 5f             	add    BYTE PTR [edi+0x5f],bl
  405226:	67                   	addr16
  405227:	65                   	gs
  405228:	74 6d                	je     405297 <.idata$6+0x5>
  40522a:	61                   	popa   
  40522b:	69 6e 61 72 67 73 00 	imul   ebp,DWORD PTR [esi+0x61],0x736772

00405232 <.idata$6>:
  405232:	4d                   	dec    ebp
  405233:	00 5f 5f             	add    BYTE PTR [edi+0x5f],bl
  405236:	70 5f                	jo     405297 <.idata$6+0x5>
  405238:	5f                   	pop    edi
  405239:	65 6e                	outs   dx,BYTE PTR gs:[esi]
  40523b:	76 69                	jbe    4052a6 <.idata$6>
  40523d:	72 6f                	jb     4052ae <.idata$6>
  40523f:	6e                   	outs   dx,BYTE PTR ds:[esi]
  405240:	00 00                	add    BYTE PTR [eax],al

00405242 <.idata$6>:
  405242:	4f                   	dec    edi
  405243:	00 5f 5f             	add    BYTE PTR [edi+0x5f],bl
  405246:	70 5f                	jo     4052a7 <.idata$6+0x1>
  405248:	5f                   	pop    edi
  405249:	66 6d                	ins    WORD PTR es:[edi],dx
  40524b:	6f                   	outs   dx,DWORD PTR ds:[esi]
  40524c:	64 65 00 00          	fs add BYTE PTR fs:gs:[eax],al

00405250 <.idata$6>:
  405250:	63 00                	arpl   WORD PTR [eax],ax
  405252:	5f                   	pop    edi
  405253:	5f                   	pop    edi
  405254:	73 65                	jae    4052bb <.idata$6+0x3>
  405256:	74 5f                	je     4052b7 <.idata$6+0x9>
  405258:	61                   	popa   
  405259:	70 70                	jo     4052cb <.idata$6+0x9>
  40525b:	5f                   	pop    edi
  40525c:	74 79                	je     4052d7 <.idata$6+0xb>
  40525e:	70 65                	jo     4052c5 <.idata$6+0x3>
  405260:	00 00                	add    BYTE PTR [eax],al

00405262 <.idata$6>:
  405262:	93                   	xchg   ebx,eax
  405263:	00 5f 63             	add    BYTE PTR [edi+0x63],bl
  405266:	65                   	gs
  405267:	78 69                	js     4052d2 <.idata$6+0x6>
  405269:	74 00                	je     40526b <.idata$6+0x9>
  40526b:	00 0a                	add    BYTE PTR [edx],cl

0040526c <.idata$6>:
  40526c:	0a 01                	or     al,BYTE PTR [ecx]
  40526e:	5f                   	pop    edi
  40526f:	69 6f 62 00 00 7f 01 	imul   ebp,DWORD PTR [edi+0x62],0x17f0000

00405274 <.idata$6>:
  405274:	7f 01                	jg     405277 <.idata$6+0x3>
  405276:	5f                   	pop    edi
  405277:	6f                   	outs   dx,DWORD PTR ds:[esi]
  405278:	6e                   	outs   dx,BYTE PTR ds:[esi]
  405279:	65                   	gs
  40527a:	78 69                	js     4052e5 <.idata$7+0x1>
  40527c:	74 00                	je     40527e <.idata$6>

0040527e <.idata$6>:
  40527e:	aa                   	stos   BYTE PTR es:[edi],al
  40527f:	01 5f 73             	add    DWORD PTR [edi+0x73],ebx
  405282:	65                   	gs
  405283:	74 6d                	je     4052f2 <.idata$7+0x2>
  405285:	6f                   	outs   dx,DWORD PTR ds:[esi]
  405286:	64 65 00 00          	fs add BYTE PTR fs:gs:[eax],al

0040528a <.idata$6>:
  40528a:	47                   	inc    edi
  40528b:	02 61 62             	add    ah,BYTE PTR [ecx+0x62]
  40528e:	6f                   	outs   dx,DWORD PTR ds:[esi]
  40528f:	72 74                	jb     405305 <.idata$7+0x1>
  405291:	00 4e 02             	add    BYTE PTR [esi+0x2],cl

00405292 <.idata$6>:
  405292:	4e                   	dec    esi
  405293:	02 61 74             	add    ah,BYTE PTR [ecx+0x74]
  405296:	65                   	gs
  405297:	78 69                	js     405302 <.idata$7+0x2>
  405299:	74 00                	je     40529b <.idata$6+0x9>
  40529b:	00 53 02             	add    BYTE PTR [ebx+0x2],dl

0040529c <.idata$6>:
  40529c:	53                   	push   ebx
  40529d:	02 63 61             	add    ah,BYTE PTR [ebx+0x61]
  4052a0:	6c                   	ins    BYTE PTR es:[edi],dx
  4052a1:	6c                   	ins    BYTE PTR es:[edi],dx
  4052a2:	6f                   	outs   dx,DWORD PTR ds:[esi]
  4052a3:	63 00                	arpl   WORD PTR [eax],ax
  4052a5:	00 71 02             	add    BYTE PTR [ecx+0x2],dh

004052a6 <.idata$6>:
  4052a6:	71 02                	jno    4052aa <.idata$6+0x4>
  4052a8:	66                   	data16
  4052a9:	72 65                	jb     405310 <_libkernel32_a_iname+0x8>
  4052ab:	65 00 00             	add    BYTE PTR gs:[eax],al

004052ae <.idata$6>:
  4052ae:	79 02                	jns    4052b2 <.idata$6+0x4>
  4052b0:	66                   	data16
  4052b1:	77 72                	ja     405325 <.idata$7+0x1>
  4052b3:	69 74 65 00 00 b1 02 	imul   esi,DWORD PTR [ebp+eiz*2+0x0],0x7002b100
  4052ba:	70 

004052b8 <.idata$6>:
  4052b8:	b1 02                	mov    cl,0x2
  4052ba:	70 72                	jo     40532e <.idata$7+0x2>
  4052bc:	69 6e 74 66 00 00 c2 	imul   ebp,DWORD PTR [esi+0x74],0xc2000066

004052c2 <.idata$6>:
  4052c2:	c2 02 73             	ret    0x7302
  4052c5:	69 67 6e 61 6c 00 00 	imul   esp,DWORD PTR [edi+0x6e],0x6c61

004052cc <.idata$6>:
  4052cc:	ec                   	in     al,dx
  4052cd:	02 76 66             	add    dh,BYTE PTR [esi+0x66]
  4052d0:	70 72                	jo     405344 <.idata$7>
  4052d2:	69 6e 74 66 00 00 00 	imul   ebp,DWORD PTR [esi+0x74],0x66

004052d8 <.idata$7>:
  4052d8:	00 50 00             	add    BYTE PTR [eax+0x0],dl
  4052db:	00 00                	add    BYTE PTR [eax],al

004052dc <.idata$7>:
  4052dc:	00 50 00             	add    BYTE PTR [eax+0x0],dl
  4052df:	00 00                	add    BYTE PTR [eax],al

004052e0 <.idata$7>:
  4052e0:	00 50 00             	add    BYTE PTR [eax+0x0],dl
  4052e3:	00 00                	add    BYTE PTR [eax],al

004052e4 <.idata$7>:
  4052e4:	00 50 00             	add    BYTE PTR [eax+0x0],dl
  4052e7:	00 00                	add    BYTE PTR [eax],al

004052e8 <.idata$7>:
  4052e8:	00 50 00             	add    BYTE PTR [eax+0x0],dl
  4052eb:	00 00                	add    BYTE PTR [eax],al

004052ec <.idata$7>:
  4052ec:	00 50 00             	add    BYTE PTR [eax+0x0],dl
  4052ef:	00 00                	add    BYTE PTR [eax],al

004052f0 <.idata$7>:
  4052f0:	00 50 00             	add    BYTE PTR [eax+0x0],dl
  4052f3:	00 00                	add    BYTE PTR [eax],al

004052f4 <.idata$7>:
  4052f4:	00 50 00             	add    BYTE PTR [eax+0x0],dl
  4052f7:	00 00                	add    BYTE PTR [eax],al

004052f8 <.idata$7>:
  4052f8:	00 50 00             	add    BYTE PTR [eax+0x0],dl
  4052fb:	00 00                	add    BYTE PTR [eax],al

004052fc <.idata$7>:
  4052fc:	00 50 00             	add    BYTE PTR [eax+0x0],dl
  4052ff:	00 00                	add    BYTE PTR [eax],al

00405300 <.idata$7>:
  405300:	00 50 00             	add    BYTE PTR [eax+0x0],dl
  405303:	00 00                	add    BYTE PTR [eax],al

00405304 <.idata$7>:
  405304:	00 50 00             	add    BYTE PTR [eax+0x0],dl
  405307:	00 4b 45             	add    BYTE PTR [ebx+0x45],cl

00405308 <_libkernel32_a_iname>:
  405308:	4b                   	dec    ebx
  405309:	45                   	inc    ebp
  40530a:	52                   	push   edx
  40530b:	4e                   	dec    esi
  40530c:	45                   	inc    ebp
  40530d:	4c                   	dec    esp
  40530e:	33 32                	xor    esi,DWORD PTR [edx]
  405310:	2e                   	cs
  405311:	64                   	fs
  405312:	6c                   	ins    BYTE PTR es:[edi],dx
  405313:	6c                   	ins    BYTE PTR es:[edi],dx
  405314:	00 00                	add    BYTE PTR [eax],al
  405316:	00 00                	add    BYTE PTR [eax],al

00405318 <.idata$7>:
  405318:	14 50                	adc    al,0x50
  40531a:	00 00                	add    BYTE PTR [eax],al

0040531c <.idata$7>:
  40531c:	14 50                	adc    al,0x50
  40531e:	00 00                	add    BYTE PTR [eax],al

00405320 <.idata$7>:
  405320:	14 50                	adc    al,0x50
  405322:	00 00                	add    BYTE PTR [eax],al

00405324 <.idata$7>:
  405324:	14 50                	adc    al,0x50
  405326:	00 00                	add    BYTE PTR [eax],al

00405328 <.idata$7>:
  405328:	14 50                	adc    al,0x50
  40532a:	00 00                	add    BYTE PTR [eax],al

0040532c <.idata$7>:
  40532c:	14 50                	adc    al,0x50
  40532e:	00 00                	add    BYTE PTR [eax],al

00405330 <.idata$7>:
  405330:	14 50                	adc    al,0x50
  405332:	00 00                	add    BYTE PTR [eax],al

00405334 <.idata$7>:
  405334:	14 50                	adc    al,0x50
  405336:	00 00                	add    BYTE PTR [eax],al

00405338 <.idata$7>:
  405338:	14 50                	adc    al,0x50
  40533a:	00 00                	add    BYTE PTR [eax],al

0040533c <.idata$7>:
  40533c:	14 50                	adc    al,0x50
  40533e:	00 00                	add    BYTE PTR [eax],al

00405340 <.idata$7>:
  405340:	14 50                	adc    al,0x50
  405342:	00 00                	add    BYTE PTR [eax],al

00405344 <.idata$7>:
  405344:	14 50                	adc    al,0x50
  405346:	00 00                	add    BYTE PTR [eax],al

00405348 <.idata$7>:
  405348:	14 50                	adc    al,0x50
  40534a:	00 00                	add    BYTE PTR [eax],al

0040534c <.idata$7>:
  40534c:	14 50                	adc    al,0x50
  40534e:	00 00                	add    BYTE PTR [eax],al

00405350 <.idata$7>:
  405350:	14 50                	adc    al,0x50
  405352:	00 00                	add    BYTE PTR [eax],al

00405354 <.idata$7>:
  405354:	14 50                	adc    al,0x50
  405356:	00 00                	add    BYTE PTR [eax],al

00405358 <_libmsvcrt_a_iname>:
  405358:	6d                   	ins    DWORD PTR es:[edi],dx
  405359:	73 76                	jae    4053d1 <_libmsvcrt_a_iname+0x79>
  40535b:	63 72 74             	arpl   WORD PTR [edx+0x74],si
  40535e:	2e                   	cs
  40535f:	64                   	fs
  405360:	6c                   	ins    BYTE PTR es:[edi],dx
  405361:	6c                   	ins    BYTE PTR es:[edi],dx
  405362:	00 00                	add    BYTE PTR [eax],al

Disassembly of section .CRT:

00406000 <__crt_xc_end__>:
  406000:	00 00                	add    BYTE PTR [eax],al
  406002:	00 00                	add    BYTE PTR [eax],al

00406004 <__xl_c>:
  406004:	8c 13                	mov    WORD PTR [ebx],ss
  406006:	40                   	inc    eax
  406007:	00 58 13             	add    BYTE PTR [eax+0x13],bl

00406008 <__xl_d>:
  406008:	58                   	pop    eax
  406009:	13 40 00             	adc    eax,DWORD PTR [eax+0x0]

0040600c <__xl_z>:
  40600c:	00 00                	add    BYTE PTR [eax],al
  40600e:	00 00                	add    BYTE PTR [eax],al

00406010 <__crt_xp_end__>:
  406010:	00 00                	add    BYTE PTR [eax],al
  406012:	00 00                	add    BYTE PTR [eax],al

00406014 <__xd_z>:
  406014:	00 00                	add    BYTE PTR [eax],al
  406016:	00 00                	add    BYTE PTR [eax],al

Disassembly of section .tls:

00407000 <__tls_start__>:
  407000:	19 70 40             	sbb    DWORD PTR [eax+0x40],esi
  407003:	00 1c 70             	add    BYTE PTR [eax+esi*2],bl
  407006:	40                   	inc    eax
  407007:	00 08                	add    BYTE PTR [eax],cl
  407009:	40                   	inc    eax
  40700a:	40                   	inc    eax
  40700b:	00 04 60             	add    BYTE PTR [eax+eiz*2],al
  40700e:	40                   	inc    eax
  40700f:	00 00                	add    BYTE PTR [eax],al
  407011:	00 00                	add    BYTE PTR [eax],al
  407013:	00 00                	add    BYTE PTR [eax],al
  407015:	00 00                	add    BYTE PTR [eax],al
  407017:	00 00                	add    BYTE PTR [eax],al

00407018 <_tls_start>:
  407018:	00 00                	add    BYTE PTR [eax],al
  40701a:	00 00                	add    BYTE PTR [eax],al

0040701c <_tls_end>:
  40701c:	00 00                	add    BYTE PTR [eax],al
  40701e:	00 00                	add    BYTE PTR [eax],al
